ARM GAS  C:\Users\zakis\AppData\Local\Temp\ccq6fahd.s 			page 1


   1              		.syntax unified
   2              		.cpu cortex-m3
   3              		.fpu softvfp
   4              		.eabi_attribute 20, 1
   5              		.eabi_attribute 21, 1
   6              		.eabi_attribute 23, 3
   7              		.eabi_attribute 24, 1
   8              		.eabi_attribute 25, 1
   9              		.eabi_attribute 26, 1
  10              		.eabi_attribute 30, 1
  11              		.eabi_attribute 34, 1
  12              		.eabi_attribute 18, 4
  13              		.thumb
  14              		.syntax unified
  15              		.file	"drawer.c"
  16              		.text
  17              	.Ltext0:
  18              		.cfi_sections	.debug_frame
  19              		.section	.text.DRAWER_convertToColor,"ax",%progbits
  20              		.align	2
  21              		.global	DRAWER_convertToColor
  22              		.thumb
  23              		.thumb_func
  24              		.type	DRAWER_convertToColor, %function
  25              	DRAWER_convertToColor:
  26              	.LFB2:
  27              		.file 1 "source\\bsw\\cdd\\drawer.c"
   1:source\bsw\cdd/drawer.c **** /**
   2:source\bsw\cdd/drawer.c **** * \file uart.c
   3:source\bsw\cdd/drawer.c **** * \author P. Fromm
   4:source\bsw\cdd/drawer.c **** * \date 8.12.19
   5:source\bsw\cdd/drawer.c **** *
   6:source\bsw\cdd/drawer.c **** * \brief UART wrapper
   7:source\bsw\cdd/drawer.c **** *
   8:source\bsw\cdd/drawer.c **** * \copyright Copyright ©2016
   9:source\bsw\cdd/drawer.c **** * Department of electrical engineering and information technology, Hochschule Darmstadt - Universit
  10:source\bsw\cdd/drawer.c **** * Permission to use, copy, modify, and distribute this software and its documentation for education
  11:source\bsw\cdd/drawer.c **** * (unless permitted by h_da) and official h_da projects, is hereby granted for enrolled students of
  12:source\bsw\cdd/drawer.c **** * this paragraph and the following paragraph appear in all copies, modifications, and distributions
  13:source\bsw\cdd/drawer.c **** * Contact Prof.Dr.-Ing. Peter Fromm, peter.fromm@h-da.de, Birkenweg 8 64295 Darmstadt - GERMANY for
  14:source\bsw\cdd/drawer.c **** *
  15:source\bsw\cdd/drawer.c **** * \warning This software is a PROTOTYPE version and is not designed or intended for use in producti
  16:source\bsw\cdd/drawer.c **** * The user represents and warrants that it will NOT use or redistribute the Software for such purpo
  17:source\bsw\cdd/drawer.c **** * This prototype is for research purposes only. This software is provided "AS IS," without a warran
  18:source\bsw\cdd/drawer.c **** */
  19:source\bsw\cdd/drawer.c **** 
  20:source\bsw\cdd/drawer.c **** /*****************************************************************************/
  21:source\bsw\cdd/drawer.c **** /* Include files                                                             */
  22:source\bsw\cdd/drawer.c **** /*****************************************************************************/
  23:source\bsw\cdd/drawer.c **** #include <string.h>
  24:source\bsw\cdd/drawer.c **** 
  25:source\bsw\cdd/drawer.c **** #include "drawer.h"
  26:source\bsw\cdd/drawer.c **** #include "UART_LOG.h"
  27:source\bsw\cdd/drawer.c **** 
  28:source\bsw\cdd/drawer.c **** /*****************************************************************************/
  29:source\bsw\cdd/drawer.c **** /* Local pre-processor symbols/macros ('#define')                            */
  30:source\bsw\cdd/drawer.c **** /*****************************************************************************/
ARM GAS  C:\Users\zakis\AppData\Local\Temp\ccq6fahd.s 			page 2


  31:source\bsw\cdd/drawer.c **** 
  32:source\bsw\cdd/drawer.c **** /*****************************************************************************/
  33:source\bsw\cdd/drawer.c **** /* Global variable definitions (declared in header file with 'extern')       */
  34:source\bsw\cdd/drawer.c **** /*****************************************************************************/
  35:source\bsw\cdd/drawer.c **** 
  36:source\bsw\cdd/drawer.c **** /*****************************************************************************/
  37:source\bsw\cdd/drawer.c **** /* Local type definitions ('typedef')                                        */
  38:source\bsw\cdd/drawer.c **** /*****************************************************************************/
  39:source\bsw\cdd/drawer.c **** 
  40:source\bsw\cdd/drawer.c **** /*****************************************************************************/
  41:source\bsw\cdd/drawer.c **** /* Local variable definitions ('static')                                     */
  42:source\bsw\cdd/drawer.c **** /*****************************************************************************/
  43:source\bsw\cdd/drawer.c **** 
  44:source\bsw\cdd/drawer.c **** 
  45:source\bsw\cdd/drawer.c **** 
  46:source\bsw\cdd/drawer.c **** /*****************************************************************************/
  47:source\bsw\cdd/drawer.c **** /* Local function prototypes ('static')                                      */
  48:source\bsw\cdd/drawer.c **** /*****************************************************************************/
  49:source\bsw\cdd/drawer.c **** 
  50:source\bsw\cdd/drawer.c **** 
  51:source\bsw\cdd/drawer.c **** /*****************************************************************************/
  52:source\bsw\cdd/drawer.c **** /* Function implementation - global ('extern') and local ('static')          */
  53:source\bsw\cdd/drawer.c **** /*****************************************************************************/
  54:source\bsw\cdd/drawer.c **** 
  55:source\bsw\cdd/drawer.c **** RC_t DRAWER_init(DRAWER_t *const me){
  56:source\bsw\cdd/drawer.c ****     TFT_init();
  57:source\bsw\cdd/drawer.c ****     DRAWER_sendMessage("TFT is ready.\n\nSend JSON packets viaUART");
  58:source\bsw\cdd/drawer.c ****     return RB_Draw_t_init(&me->m_buffer);
  59:source\bsw\cdd/drawer.c ****     
  60:source\bsw\cdd/drawer.c ****     
  61:source\bsw\cdd/drawer.c **** }
  62:source\bsw\cdd/drawer.c **** RC_t DRAWER_convertToColor(DrawingInstr_t * const instruction, uint8_t* const data){
  28              		.loc 1 62 0
  29              		.cfi_startproc
  30              		@ args = 0, pretend = 0, frame = 0
  31              		@ frame_needed = 0, uses_anonymous_args = 0
  32              	.LVL0:
  33 0000 38B5     		push	{r3, r4, r5, lr}
  34              		.cfi_def_cfa_offset 16
  35              		.cfi_offset 3, -16
  36              		.cfi_offset 4, -12
  37              		.cfi_offset 5, -8
  38              		.cfi_offset 14, -4
  39 0002 0546     		mov	r5, r0
  40 0004 0C46     		mov	r4, r1
  63:source\bsw\cdd/drawer.c ****     if (strcmp((char *)data, "red") == 0) {
  41              		.loc 1 63 0
  42 0006 0F49     		ldr	r1, .L6
  43              	.LVL1:
  44 0008 2046     		mov	r0, r4
  45              	.LVL2:
  46 000a FFF7FEFF 		bl	strcmp
  47              	.LVL3:
  48 000e 18B9     		cbnz	r0, .L2
  64:source\bsw\cdd/drawer.c ****         instruction ->color = RED;
  49              		.loc 1 64 0
  50 0010 1F23     		movs	r3, #31
ARM GAS  C:\Users\zakis\AppData\Local\Temp\ccq6fahd.s 			page 3


  51 0012 A5F8A030 		strh	r3, [r5, #160]	@ movhi
  52 0016 12E0     		b	.L3
  53              	.L2:
  65:source\bsw\cdd/drawer.c ****     } else if (strcmp((char *)data, "green") == 0) {
  54              		.loc 1 65 0
  55 0018 0B49     		ldr	r1, .L6+4
  56 001a 2046     		mov	r0, r4
  57 001c FFF7FEFF 		bl	strcmp
  58              	.LVL4:
  59 0020 20B9     		cbnz	r0, .L4
  66:source\bsw\cdd/drawer.c ****         instruction ->color = GREEN;
  60              		.loc 1 66 0
  61 0022 4FF4FC63 		mov	r3, #2016
  62 0026 A5F8A030 		strh	r3, [r5, #160]	@ movhi
  63 002a 08E0     		b	.L3
  64              	.L4:
  67:source\bsw\cdd/drawer.c ****     } else if (strcmp((char *)data, "blue") == 0) {
  65              		.loc 1 67 0
  66 002c 0749     		ldr	r1, .L6+8
  67 002e 2046     		mov	r0, r4
  68 0030 FFF7FEFF 		bl	strcmp
  69              	.LVL5:
  70 0034 18B9     		cbnz	r0, .L3
  68:source\bsw\cdd/drawer.c ****         instruction ->color = BLUE;
  71              		.loc 1 68 0
  72 0036 4FF47843 		mov	r3, #63488
  73 003a A5F8A030 		strh	r3, [r5, #160]	@ movhi
  74              	.L3:
  69:source\bsw\cdd/drawer.c ****     }
  70:source\bsw\cdd/drawer.c ****     return RC_SUCCESS;
  71:source\bsw\cdd/drawer.c **** }
  75              		.loc 1 71 0
  76 003e 0020     		movs	r0, #0
  77 0040 38BD     		pop	{r3, r4, r5, pc}
  78              	.LVL6:
  79              	.L7:
  80 0042 00BF     		.align	2
  81              	.L6:
  82 0044 00000000 		.word	.LC0
  83 0048 04000000 		.word	.LC1
  84 004c 0C000000 		.word	.LC2
  85              		.cfi_endproc
  86              	.LFE2:
  87              		.size	DRAWER_convertToColor, .-DRAWER_convertToColor
  88              		.section	.text.DRAWER_convertToCoordinate,"ax",%progbits
  89              		.align	2
  90              		.global	DRAWER_convertToCoordinate
  91              		.thumb
  92              		.thumb_func
  93              		.type	DRAWER_convertToCoordinate, %function
  94              	DRAWER_convertToCoordinate:
  95              	.LFB3:
  72:source\bsw\cdd/drawer.c **** 
  73:source\bsw\cdd/drawer.c **** RC_t DRAWER_convertToCoordinate(DrawingInstr_t * const instruction, uint8_t* const data, uint8_t co
  96              		.loc 1 73 0
  97              		.cfi_startproc
  98              		@ args = 0, pretend = 0, frame = 0
ARM GAS  C:\Users\zakis\AppData\Local\Temp\ccq6fahd.s 			page 4


  99              		@ frame_needed = 0, uses_anonymous_args = 0
 100              		@ link register save eliminated.
 101              	.LVL7:
 102 0000 F0B4     		push	{r4, r5, r6, r7}
 103              		.cfi_def_cfa_offset 16
 104              		.cfi_offset 4, -16
 105              		.cfi_offset 5, -12
 106              		.cfi_offset 6, -8
 107              		.cfi_offset 7, -4
 108              	.LVL8:
 109              	.LBB2:
  74:source\bsw\cdd/drawer.c ****     
  75:source\bsw\cdd/drawer.c ****     uint16_t coordinate = 0;
  76:source\bsw\cdd/drawer.c ****     for (uint8_t i = 0; data[i] != '\0'; ++i){
 110              		.loc 1 76 0
 111 0002 0026     		movs	r6, #0
 112              	.LBE2:
  75:source\bsw\cdd/drawer.c ****     for (uint8_t i = 0; data[i] != '\0'; ++i){
 113              		.loc 1 75 0
 114 0004 3546     		mov	r5, r6
 115              	.LBB3:
 116              		.loc 1 76 0
 117 0006 0CE0     		b	.L9
 118              	.LVL9:
 119              	.L11:
  77:source\bsw\cdd/drawer.c ****         if (data[i] - '0' < 0 || data[i] - '0' >= 9){
 120              		.loc 1 77 0
 121 0008 A4F13007 		sub	r7, r4, #48
 122 000c 082F     		cmp	r7, #8
 123 000e 11D8     		bhi	.L12
  78:source\bsw\cdd/drawer.c ****             return RC_ERROR;
  79:source\bsw\cdd/drawer.c ****         }
  80:source\bsw\cdd/drawer.c ****         coordinate = coordinate * 10 + (data[i] - '0');
 124              		.loc 1 80 0 discriminator 2
 125 0010 05EB8505 		add	r5, r5, r5, lsl #2
 126              	.LVL10:
 127 0014 6F00     		lsls	r7, r5, #1
 128 0016 3C44     		add	r4, r4, r7
 129 0018 A4B2     		uxth	r4, r4
 130 001a 303C     		subs	r4, r4, #48
 131 001c A5B2     		uxth	r5, r4
 132              	.LVL11:
  76:source\bsw\cdd/drawer.c ****         if (data[i] - '0' < 0 || data[i] - '0' >= 9){
 133              		.loc 1 76 0 discriminator 2
 134 001e 0136     		adds	r6, r6, #1
 135              	.LVL12:
 136 0020 F6B2     		uxtb	r6, r6
 137              	.LVL13:
 138              	.L9:
  76:source\bsw\cdd/drawer.c ****         if (data[i] - '0' < 0 || data[i] - '0' >= 9){
 139              		.loc 1 76 0 is_stmt 0 discriminator 1
 140 0022 8C5D     		ldrb	r4, [r1, r6]	@ zero_extendqisi2
 141 0024 002C     		cmp	r4, #0
 142 0026 EFD1     		bne	.L11
 143              	.LBE3:
  81:source\bsw\cdd/drawer.c ****     }    
  82:source\bsw\cdd/drawer.c ****     instruction->lines[numLines].coordinates[coordinateIndex] = coordinate;
ARM GAS  C:\Users\zakis\AppData\Local\Temp\ccq6fahd.s 			page 5


 144              		.loc 1 82 0 is_stmt 1
 145 0028 02EB8302 		add	r2, r2, r3, lsl #2
 146              	.LVL14:
 147 002c 20F81250 		strh	r5, [r0, r2, lsl #1]	@ movhi
  83:source\bsw\cdd/drawer.c ****     return RC_SUCCESS;
 148              		.loc 1 83 0
 149 0030 0020     		movs	r0, #0
 150              	.LVL15:
 151 0032 01E0     		b	.L10
 152              	.LVL16:
 153              	.L12:
 154              	.LBB4:
  78:source\bsw\cdd/drawer.c ****         }
 155              		.loc 1 78 0
 156 0034 4FF0FF30 		mov	r0, #-1
 157              	.LVL17:
 158              	.L10:
 159              	.LBE4:
  84:source\bsw\cdd/drawer.c **** }
 160              		.loc 1 84 0
 161 0038 F0BC     		pop	{r4, r5, r6, r7}
 162              		.cfi_restore 7
 163              		.cfi_restore 6
 164              		.cfi_restore 5
 165              		.cfi_restore 4
 166              		.cfi_def_cfa_offset 0
 167              	.LVL18:
 168 003a 7047     		bx	lr
 169              		.cfi_endproc
 170              	.LFE3:
 171              		.size	DRAWER_convertToCoordinate, .-DRAWER_convertToCoordinate
 172              		.section	.text.DRAWER_getDrawingInstructions,"ax",%progbits
 173              		.align	2
 174              		.global	DRAWER_getDrawingInstructions
 175              		.thumb
 176              		.thumb_func
 177              		.type	DRAWER_getDrawingInstructions, %function
 178              	DRAWER_getDrawingInstructions:
 179              	.LFB4:
  85:source\bsw\cdd/drawer.c **** 
  86:source\bsw\cdd/drawer.c **** RC_t DRAWER_getDrawingInstructions(DRAWER_t *const me, PARSER_t *const parser){
 180              		.loc 1 86 0
 181              		.cfi_startproc
 182              		@ args = 0, pretend = 0, frame = 192
 183              		@ frame_needed = 0, uses_anonymous_args = 0
 184              	.LVL19:
 185 0000 2DE9F041 		push	{r4, r5, r6, r7, r8, lr}
 186              		.cfi_def_cfa_offset 24
 187              		.cfi_offset 4, -24
 188              		.cfi_offset 5, -20
 189              		.cfi_offset 6, -16
 190              		.cfi_offset 7, -12
 191              		.cfi_offset 8, -8
 192              		.cfi_offset 14, -4
 193 0004 B0B0     		sub	sp, sp, #192
 194              		.cfi_def_cfa_offset 216
 195 0006 8046     		mov	r8, r0
ARM GAS  C:\Users\zakis\AppData\Local\Temp\ccq6fahd.s 			page 6


 196 0008 0C46     		mov	r4, r1
 197              	.LVL20:
  87:source\bsw\cdd/drawer.c ****    
  88:source\bsw\cdd/drawer.c ****     uint8_t data[10];
  89:source\bsw\cdd/drawer.c ****     uint8_t index = 0;
  90:source\bsw\cdd/drawer.c ****     uint16_t coordinate = 0;
  91:source\bsw\cdd/drawer.c ****     uint8_t coordinateIndex = 0;
  92:source\bsw\cdd/drawer.c ****     uint8_t numLines = 0;
 198              		.loc 1 92 0
 199 000a 0027     		movs	r7, #0
  93:source\bsw\cdd/drawer.c ****     jsmntok_t token;
  94:source\bsw\cdd/drawer.c ****     DrawingInstr_t instruction;
  95:source\bsw\cdd/drawer.c **** 
  96:source\bsw\cdd/drawer.c ****     while (PARSER_getToken(parser, &token) == RC_SUCCESS){
 200              		.loc 1 96 0
 201 000c 5FE0     		b	.L15
 202              	.LVL21:
 203              	.L25:
  97:source\bsw\cdd/drawer.c **** 
  98:source\bsw\cdd/drawer.c ****        if (token.size == 1){
 204              		.loc 1 98 0
 205 000e 2C9B     		ldr	r3, [sp, #176]
 206 0010 012B     		cmp	r3, #1
 207 0012 5CD1     		bne	.L15
  99:source\bsw\cdd/drawer.c ****             if (parser -> jsonStringBuffer [token.start] == 'c'){
 208              		.loc 1 99 0
 209 0014 D4F83023 		ldr	r2, [r4, #816]
 210 0018 2A9B     		ldr	r3, [sp, #168]
 211 001a D35C     		ldrb	r3, [r2, r3]	@ zero_extendqisi2
 212 001c 632B     		cmp	r3, #99
 213 001e 1FD1     		bne	.L17
 100:source\bsw\cdd/drawer.c ****                 PARSER_getToken(parser, &token);
 214              		.loc 1 100 0
 215 0020 29A9     		add	r1, sp, #164
 216 0022 2046     		mov	r0, r4
 217 0024 FFF7FEFF 		bl	PARSER_getToken
 218              	.LVL22:
 219              	.LBB5:
 101:source\bsw\cdd/drawer.c ****                 for (uint16_t i = token.start; i < token.end; ++i){
 220              		.loc 1 101 0
 221 0028 BDF8A830 		ldrh	r3, [sp, #168]
 222              	.LVL23:
 223 002c 0022     		movs	r2, #0
 224 002e 0AE0     		b	.L18
 225              	.LVL24:
 226              	.L19:
 102:source\bsw\cdd/drawer.c ****                     data[index++] = parser -> jsonStringBuffer[i]; 
 227              		.loc 1 102 0 discriminator 3
 228 0030 511C     		adds	r1, r2, #1
 229              	.LVL25:
 230 0032 D4F83003 		ldr	r0, [r4, #816]
 231 0036 C05C     		ldrb	r0, [r0, r3]	@ zero_extendqisi2
 232 0038 30AD     		add	r5, sp, #192
 233 003a 2A44     		add	r2, r2, r5
 234 003c 02F80C0C 		strb	r0, [r2, #-12]
 101:source\bsw\cdd/drawer.c ****                 for (uint16_t i = token.start; i < token.end; ++i){
 235              		.loc 1 101 0 discriminator 3
ARM GAS  C:\Users\zakis\AppData\Local\Temp\ccq6fahd.s 			page 7


 236 0040 0133     		adds	r3, r3, #1
 237              	.LVL26:
 238 0042 9BB2     		uxth	r3, r3
 239              	.LVL27:
 240              		.loc 1 102 0 discriminator 3
 241 0044 CAB2     		uxtb	r2, r1
 242              	.LVL28:
 243              	.L18:
 101:source\bsw\cdd/drawer.c ****                 for (uint16_t i = token.start; i < token.end; ++i){
 244              		.loc 1 101 0 discriminator 1
 245 0046 2B99     		ldr	r1, [sp, #172]
 246 0048 8B42     		cmp	r3, r1
 247 004a F1DB     		blt	.L19
 248              	.LBE5:
 103:source\bsw\cdd/drawer.c ****                 }
 104:source\bsw\cdd/drawer.c ****                 data[index] = '\0';
 249              		.loc 1 104 0
 250 004c 30AB     		add	r3, sp, #192
 251              	.LVL29:
 252 004e 1A44     		add	r2, r2, r3
 253              	.LVL30:
 254 0050 0023     		movs	r3, #0
 255 0052 02F80C3C 		strb	r3, [r2, #-12]
 256              	.LVL31:
 105:source\bsw\cdd/drawer.c ****                 index = 0;
 106:source\bsw\cdd/drawer.c ****                 // convert data to color
 107:source\bsw\cdd/drawer.c ****                 DRAWER_convertToColor(&instruction, data);
 257              		.loc 1 107 0
 258 0056 2DA9     		add	r1, sp, #180
 259 0058 6846     		mov	r0, sp
 260 005a FFF7FEFF 		bl	DRAWER_convertToColor
 261              	.LVL32:
 262 005e 36E0     		b	.L15
 263              	.L17:
 108:source\bsw\cdd/drawer.c ****             }
 109:source\bsw\cdd/drawer.c ****             else if (parser -> jsonStringBuffer [token.start] == 'd'){
 264              		.loc 1 109 0
 265 0060 642B     		cmp	r3, #100
 266 0062 34D1     		bne	.L15
 110:source\bsw\cdd/drawer.c ****                 PARSER_getToken(parser, &token);
 267              		.loc 1 110 0
 268 0064 29A9     		add	r1, sp, #164
 269 0066 2046     		mov	r0, r4
 270 0068 FFF7FEFF 		bl	PARSER_getToken
 271              	.LVL33:
 272              	.LBB6:
 111:source\bsw\cdd/drawer.c ****                 // get coordinates
 112:source\bsw\cdd/drawer.c ****                 
 113:source\bsw\cdd/drawer.c ****                 for (int i = 0; i < 4; ++i){
 273              		.loc 1 113 0
 274 006c 0026     		movs	r6, #0
 275 006e 3546     		mov	r5, r6
 276 0070 27E0     		b	.L20
 277              	.LVL34:
 278              	.L24:
 114:source\bsw\cdd/drawer.c ****                     PARSER_getToken(parser, &token);
 279              		.loc 1 114 0
ARM GAS  C:\Users\zakis\AppData\Local\Temp\ccq6fahd.s 			page 8


 280 0072 29A9     		add	r1, sp, #164
 281 0074 2046     		mov	r0, r4
 282 0076 FFF7FEFF 		bl	PARSER_getToken
 283              	.LVL35:
 284              	.LBB7:
 115:source\bsw\cdd/drawer.c **** 
 116:source\bsw\cdd/drawer.c ****                     for (uint16_t i = token.start; i < token.end; ++i){
 285              		.loc 1 116 0
 286 007a BDF8A830 		ldrh	r3, [sp, #168]
 287              	.LVL36:
 288 007e 0022     		movs	r2, #0
 289 0080 0BE0     		b	.L21
 290              	.LVL37:
 291              	.L22:
 117:source\bsw\cdd/drawer.c ****                         data[index++] = parser -> jsonStringBuffer[i];
 292              		.loc 1 117 0 discriminator 3
 293 0082 511C     		adds	r1, r2, #1
 294              	.LVL38:
 295 0084 D4F83003 		ldr	r0, [r4, #816]
 296 0088 C05C     		ldrb	r0, [r0, r3]	@ zero_extendqisi2
 297 008a 0DF1C00E 		add	lr, sp, #192
 298 008e 7244     		add	r2, r2, lr
 299 0090 02F80C0C 		strb	r0, [r2, #-12]
 116:source\bsw\cdd/drawer.c ****                         data[index++] = parser -> jsonStringBuffer[i];
 300              		.loc 1 116 0 discriminator 3
 301 0094 0133     		adds	r3, r3, #1
 302              	.LVL39:
 303 0096 9BB2     		uxth	r3, r3
 304              	.LVL40:
 305              		.loc 1 117 0 discriminator 3
 306 0098 CAB2     		uxtb	r2, r1
 307              	.LVL41:
 308              	.L21:
 116:source\bsw\cdd/drawer.c ****                         data[index++] = parser -> jsonStringBuffer[i];
 309              		.loc 1 116 0 discriminator 1
 310 009a 2B99     		ldr	r1, [sp, #172]
 311 009c 8B42     		cmp	r3, r1
 312 009e F0DB     		blt	.L22
 313              	.LBE7:
 118:source\bsw\cdd/drawer.c ****                     }
 119:source\bsw\cdd/drawer.c ****                     data[index] = '\0';
 314              		.loc 1 119 0
 315 00a0 30AB     		add	r3, sp, #192
 316              	.LVL42:
 317 00a2 1A44     		add	r2, r2, r3
 318              	.LVL43:
 319 00a4 0023     		movs	r3, #0
 320 00a6 02F80C3C 		strb	r3, [r2, #-12]
 321              	.LVL44:
 120:source\bsw\cdd/drawer.c ****                     index = 0;
 121:source\bsw\cdd/drawer.c ****                     // convert string to int
 122:source\bsw\cdd/drawer.c ****                     if (DRAWER_convertToCoordinate(&instruction, data, coordinateIndex, numLines) =
 322              		.loc 1 122 0
 323 00aa 3B46     		mov	r3, r7
 324 00ac 2A46     		mov	r2, r5
 325 00ae 2DA9     		add	r1, sp, #180
 326 00b0 6846     		mov	r0, sp
ARM GAS  C:\Users\zakis\AppData\Local\Temp\ccq6fahd.s 			page 9


 327 00b2 FFF7FEFF 		bl	DRAWER_convertToCoordinate
 328              	.LVL45:
 329 00b6 B0F1FF3F 		cmp	r0, #-1
 330 00ba 13D0     		beq	.L23
 123:source\bsw\cdd/drawer.c ****                         return RC_ERROR;
 124:source\bsw\cdd/drawer.c ****                     }
 125:source\bsw\cdd/drawer.c ****                     ++coordinateIndex;
 331              		.loc 1 125 0 discriminator 2
 332 00bc 0135     		adds	r5, r5, #1
 333              	.LVL46:
 334 00be EDB2     		uxtb	r5, r5
 335              	.LVL47:
 113:source\bsw\cdd/drawer.c ****                     PARSER_getToken(parser, &token);
 336              		.loc 1 113 0 discriminator 2
 337 00c0 0136     		adds	r6, r6, #1
 338              	.LVL48:
 339              	.L20:
 113:source\bsw\cdd/drawer.c ****                     PARSER_getToken(parser, &token);
 340              		.loc 1 113 0 is_stmt 0 discriminator 1
 341 00c2 032E     		cmp	r6, #3
 342 00c4 D5DD     		ble	.L24
 343              	.LBE6:
 126:source\bsw\cdd/drawer.c ****                     //instruction.coordinates[coordinateIndex++] = 256;
 127:source\bsw\cdd/drawer.c ****                     
 128:source\bsw\cdd/drawer.c ****                 }
 129:source\bsw\cdd/drawer.c ****                 instruction.numLines = numLines++;
 344              		.loc 1 129 0 is_stmt 1
 345 00c6 7B1C     		adds	r3, r7, #1
 346              	.LVL49:
 347 00c8 8DF8A270 		strb	r7, [sp, #162]
 348              	.LVL50:
 349 00cc DFB2     		uxtb	r7, r3
 350              	.LVL51:
 351              	.L15:
  96:source\bsw\cdd/drawer.c **** 
 352              		.loc 1 96 0
 353 00ce 29A9     		add	r1, sp, #164
 354 00d0 2046     		mov	r0, r4
 355 00d2 FFF7FEFF 		bl	PARSER_getToken
 356              	.LVL52:
 357 00d6 0028     		cmp	r0, #0
 358 00d8 99D0     		beq	.L25
 130:source\bsw\cdd/drawer.c ****                 coordinateIndex = 0;
 131:source\bsw\cdd/drawer.c ****             }
 132:source\bsw\cdd/drawer.c ****         }
 133:source\bsw\cdd/drawer.c **** 
 134:source\bsw\cdd/drawer.c ****    
 135:source\bsw\cdd/drawer.c ****     }
 136:source\bsw\cdd/drawer.c ****     RB_Draw_t_write(&me -> m_buffer, &instruction);
 359              		.loc 1 136 0
 360 00da 6946     		mov	r1, sp
 361 00dc 4046     		mov	r0, r8
 362 00de FFF7FEFF 		bl	RB_Draw_t_write
 363              	.LVL53:
 137:source\bsw\cdd/drawer.c **** 
 138:source\bsw\cdd/drawer.c **** return RC_SUCCESS;
 364              		.loc 1 138 0
ARM GAS  C:\Users\zakis\AppData\Local\Temp\ccq6fahd.s 			page 10


 365 00e2 0020     		movs	r0, #0
 366              	.LVL54:
 367              	.L23:
 139:source\bsw\cdd/drawer.c **** }
 368              		.loc 1 139 0
 369 00e4 30B0     		add	sp, sp, #192
 370              		.cfi_def_cfa_offset 24
 371              		@ sp needed
 372 00e6 BDE8F081 		pop	{r4, r5, r6, r7, r8, pc}
 373              		.cfi_endproc
 374              	.LFE4:
 375              		.size	DRAWER_getDrawingInstructions, .-DRAWER_getDrawingInstructions
 376 00ea 00BF     		.section	.text.DRAWER_readInstruction,"ax",%progbits
 377              		.align	2
 378              		.global	DRAWER_readInstruction
 379              		.thumb
 380              		.thumb_func
 381              		.type	DRAWER_readInstruction, %function
 382              	DRAWER_readInstruction:
 383              	.LFB5:
 140:source\bsw\cdd/drawer.c **** 
 141:source\bsw\cdd/drawer.c **** RC_t DRAWER_readInstruction(DRAWER_t *const me, DrawingInstr_t * const instruction){
 384              		.loc 1 141 0
 385              		.cfi_startproc
 386              		@ args = 0, pretend = 0, frame = 0
 387              		@ frame_needed = 0, uses_anonymous_args = 0
 388              	.LVL55:
 389 0000 08B5     		push	{r3, lr}
 390              		.cfi_def_cfa_offset 8
 391              		.cfi_offset 3, -8
 392              		.cfi_offset 14, -4
 142:source\bsw\cdd/drawer.c ****     return RB_Draw_t_read (&me -> m_buffer, instruction);
 393              		.loc 1 142 0
 394 0002 FFF7FEFF 		bl	RB_Draw_t_read
 395              	.LVL56:
 143:source\bsw\cdd/drawer.c **** 
 144:source\bsw\cdd/drawer.c **** }
 396              		.loc 1 144 0
 397 0006 08BD     		pop	{r3, pc}
 398              		.cfi_endproc
 399              	.LFE5:
 400              		.size	DRAWER_readInstruction, .-DRAWER_readInstruction
 401              		.section	.text.DRAWER_drawOnTFT,"ax",%progbits
 402              		.align	2
 403              		.global	DRAWER_drawOnTFT
 404              		.thumb
 405              		.thumb_func
 406              		.type	DRAWER_drawOnTFT, %function
 407              	DRAWER_drawOnTFT:
 408              	.LFB6:
 145:source\bsw\cdd/drawer.c **** 
 146:source\bsw\cdd/drawer.c **** RC_t DRAWER_drawOnTFT(DrawingInstr_t * const instruction){
 409              		.loc 1 146 0
 410              		.cfi_startproc
 411              		@ args = 0, pretend = 0, frame = 0
 412              		@ frame_needed = 0, uses_anonymous_args = 0
 413              	.LVL57:
ARM GAS  C:\Users\zakis\AppData\Local\Temp\ccq6fahd.s 			page 11


 414 0000 F0B5     		push	{r4, r5, r6, r7, lr}
 415              		.cfi_def_cfa_offset 20
 416              		.cfi_offset 4, -20
 417              		.cfi_offset 5, -16
 418              		.cfi_offset 6, -12
 419              		.cfi_offset 7, -8
 420              		.cfi_offset 14, -4
 421 0002 83B0     		sub	sp, sp, #12
 422              		.cfi_def_cfa_offset 32
 423 0004 0546     		mov	r5, r0
 147:source\bsw\cdd/drawer.c ****     TFT_clearScreen();
 424              		.loc 1 147 0
 425 0006 FFF7FEFF 		bl	TFT_clearScreen
 426              	.LVL58:
 148:source\bsw\cdd/drawer.c ****     uint8_t numLines = instruction->numLines;
 427              		.loc 1 148 0
 428 000a 95F8A260 		ldrb	r6, [r5, #162]	@ zero_extendqisi2
 429              	.LVL59:
 149:source\bsw\cdd/drawer.c ****     TFT_color_t color = instruction->color;
 430              		.loc 1 149 0
 431 000e B5F8A070 		ldrh	r7, [r5, #160]
 432              	.LVL60:
 433              	.LBB8:
 150:source\bsw\cdd/drawer.c ****     
 151:source\bsw\cdd/drawer.c ****     for (uint8_t i = 0; i <= numLines; ++i){          
 434              		.loc 1 151 0
 435 0012 0024     		movs	r4, #0
 436 0014 0EE0     		b	.L30
 437              	.LVL61:
 438              	.L31:
 152:source\bsw\cdd/drawer.c ****         
 153:source\bsw\cdd/drawer.c ****         TFT_writeLine(instruction->lines[i].coordinates[0], instruction->lines[i].coordinates[1], i
 439              		.loc 1 153 0 discriminator 3
 440 0016 05EBC401 		add	r1, r5, r4, lsl #3
 441 001a B1F90630 		ldrsh	r3, [r1, #6]
 442 001e B1F90420 		ldrsh	r2, [r1, #4]
 443 0022 B1F90210 		ldrsh	r1, [r1, #2]
 444 0026 35F93400 		ldrsh	r0, [r5, r4, lsl #3]
 445 002a 0097     		str	r7, [sp]
 446 002c FFF7FEFF 		bl	TFT_writeLine
 447              	.LVL62:
 151:source\bsw\cdd/drawer.c ****         
 448              		.loc 1 151 0 discriminator 3
 449 0030 0134     		adds	r4, r4, #1
 450              	.LVL63:
 451 0032 E4B2     		uxtb	r4, r4
 452              	.LVL64:
 453              	.L30:
 151:source\bsw\cdd/drawer.c ****         
 454              		.loc 1 151 0 is_stmt 0 discriminator 1
 455 0034 B442     		cmp	r4, r6
 456 0036 EED9     		bls	.L31
 457              	.LBE8:
 154:source\bsw\cdd/drawer.c ****                     instruction->lines[i].coordinates[3], color);
 155:source\bsw\cdd/drawer.c ****     
 156:source\bsw\cdd/drawer.c ****     }
 157:source\bsw\cdd/drawer.c ****     UART_LOG_PutString("Drawn\n");
ARM GAS  C:\Users\zakis\AppData\Local\Temp\ccq6fahd.s 			page 12


 458              		.loc 1 157 0 is_stmt 1
 459 0038 0248     		ldr	r0, .L33
 460 003a FFF7FEFF 		bl	UART_LOG_PutString
 461              	.LVL65:
 158:source\bsw\cdd/drawer.c ****     return RC_SUCCESS;
 159:source\bsw\cdd/drawer.c **** 
 160:source\bsw\cdd/drawer.c **** }
 462              		.loc 1 160 0
 463 003e 0020     		movs	r0, #0
 464 0040 03B0     		add	sp, sp, #12
 465              		.cfi_def_cfa_offset 20
 466              		@ sp needed
 467 0042 F0BD     		pop	{r4, r5, r6, r7, pc}
 468              	.LVL66:
 469              	.L34:
 470              		.align	2
 471              	.L33:
 472 0044 14000000 		.word	.LC3
 473              		.cfi_endproc
 474              	.LFE6:
 475              		.size	DRAWER_drawOnTFT, .-DRAWER_drawOnTFT
 476              		.section	.text.DRAWER_sendMessage,"ax",%progbits
 477              		.align	2
 478              		.global	DRAWER_sendMessage
 479              		.thumb
 480              		.thumb_func
 481              		.type	DRAWER_sendMessage, %function
 482              	DRAWER_sendMessage:
 483              	.LFB7:
 161:source\bsw\cdd/drawer.c **** 
 162:source\bsw\cdd/drawer.c **** RC_t DRAWER_sendMessage(const char* const message){
 484              		.loc 1 162 0
 485              		.cfi_startproc
 486              		@ args = 0, pretend = 0, frame = 0
 487              		@ frame_needed = 0, uses_anonymous_args = 0
 488              	.LVL67:
 489 0000 10B5     		push	{r4, lr}
 490              		.cfi_def_cfa_offset 8
 491              		.cfi_offset 4, -8
 492              		.cfi_offset 14, -4
 493 0002 0446     		mov	r4, r0
 163:source\bsw\cdd/drawer.c ****     TFT_clearScreen();
 494              		.loc 1 163 0
 495 0004 FFF7FEFF 		bl	TFT_clearScreen
 496              	.LVL68:
 164:source\bsw\cdd/drawer.c ****     TFT_print((char*)message);
 497              		.loc 1 164 0
 498 0008 2046     		mov	r0, r4
 499 000a FFF7FEFF 		bl	TFT_print
 500              	.LVL69:
 165:source\bsw\cdd/drawer.c ****     return RC_SUCCESS;
 166:source\bsw\cdd/drawer.c **** }
 501              		.loc 1 166 0
 502 000e 0020     		movs	r0, #0
 503 0010 10BD     		pop	{r4, pc}
 504              		.cfi_endproc
 505              	.LFE7:
ARM GAS  C:\Users\zakis\AppData\Local\Temp\ccq6fahd.s 			page 13


 506              		.size	DRAWER_sendMessage, .-DRAWER_sendMessage
 507 0012 00BF     		.section	.text.DRAWER_init,"ax",%progbits
 508              		.align	2
 509              		.global	DRAWER_init
 510              		.thumb
 511              		.thumb_func
 512              		.type	DRAWER_init, %function
 513              	DRAWER_init:
 514              	.LFB1:
  55:source\bsw\cdd/drawer.c ****     TFT_init();
 515              		.loc 1 55 0
 516              		.cfi_startproc
 517              		@ args = 0, pretend = 0, frame = 0
 518              		@ frame_needed = 0, uses_anonymous_args = 0
 519              	.LVL70:
 520 0000 10B5     		push	{r4, lr}
 521              		.cfi_def_cfa_offset 8
 522              		.cfi_offset 4, -8
 523              		.cfi_offset 14, -4
 524 0002 0446     		mov	r4, r0
  56:source\bsw\cdd/drawer.c ****     DRAWER_sendMessage("TFT is ready.\n\nSend JSON packets viaUART");
 525              		.loc 1 56 0
 526 0004 FFF7FEFF 		bl	TFT_init
 527              	.LVL71:
  57:source\bsw\cdd/drawer.c ****     return RB_Draw_t_init(&me->m_buffer);
 528              		.loc 1 57 0
 529 0008 0348     		ldr	r0, .L39
 530 000a FFF7FEFF 		bl	DRAWER_sendMessage
 531              	.LVL72:
  58:source\bsw\cdd/drawer.c ****     
 532              		.loc 1 58 0
 533 000e 2046     		mov	r0, r4
 534 0010 FFF7FEFF 		bl	RB_Draw_t_init
 535              	.LVL73:
  61:source\bsw\cdd/drawer.c **** RC_t DRAWER_convertToColor(DrawingInstr_t * const instruction, uint8_t* const data){
 536              		.loc 1 61 0
 537 0014 10BD     		pop	{r4, pc}
 538              	.LVL74:
 539              	.L40:
 540 0016 00BF     		.align	2
 541              	.L39:
 542 0018 1C000000 		.word	.LC4
 543              		.cfi_endproc
 544              	.LFE1:
 545              		.size	DRAWER_init, .-DRAWER_init
 546              		.section	.rodata.str1.4,"aMS",%progbits,1
 547              		.align	2
 548              	.LC0:
 549 0000 72656400 		.ascii	"red\000"
 550              	.LC1:
 551 0004 67726565 		.ascii	"green\000"
 551      6E00
 552 000a 0000     		.space	2
 553              	.LC2:
 554 000c 626C7565 		.ascii	"blue\000"
 554      00
 555 0011 000000   		.space	3
ARM GAS  C:\Users\zakis\AppData\Local\Temp\ccq6fahd.s 			page 14


 556              	.LC3:
 557 0014 44726177 		.ascii	"Drawn\012\000"
 557      6E0A00
 558 001b 00       		.space	1
 559              	.LC4:
 560 001c 54465420 		.ascii	"TFT is ready.\012\012Send JSON packets viaUART\000"
 560      69732072 
 560      65616479 
 560      2E0A0A53 
 560      656E6420 
 561              		.text
 562              	.Letext0:
 563              		.file 2 ".\\source\\bsw/global.h"
 564              		.file 3 ".\\source\\bsw\\cdd\\tft/tft.h"
 565              		.file 4 "source\\bsw\\cdd\\ringBufferDrawing.h"
 566              		.file 5 "source\\bsw\\cdd\\jasmin.h"
 567              		.file 6 "source\\bsw\\cdd\\parser.h"
 568              		.file 7 "source\\bsw\\cdd\\drawer.h"
 569              		.file 8 "c:\\program files (x86)\\cypress\\psoc creator\\4.4\\psoc creator\\import\\gnu\\arm\\5.4.
 570              		.file 9 "Generated_Source\\PSoC5/UART_LOG.h"