ARM GAS  C:\Users\zakis\AppData\Local\Temp\ccNO2sok.s 			page 1


   1              		.syntax unified
   2              		.cpu cortex-m3
   3              		.fpu softvfp
   4              		.eabi_attribute 20, 1
   5              		.eabi_attribute 21, 1
   6              		.eabi_attribute 23, 3
   7              		.eabi_attribute 24, 1
   8              		.eabi_attribute 25, 1
   9              		.eabi_attribute 26, 1
  10              		.eabi_attribute 30, 1
  11              		.eabi_attribute 34, 1
  12              		.eabi_attribute 18, 4
  13              		.thumb
  14              		.syntax unified
  15              		.file	"jasmin.c"
  16              		.text
  17              	.Ltext0:
  18              		.cfi_sections	.debug_frame
  19              		.section	.text.jsmn_alloc_token,"ax",%progbits
  20              		.align	2
  21              		.thumb
  22              		.thumb_func
  23              		.type	jsmn_alloc_token, %function
  24              	jsmn_alloc_token:
  25              	.LFB0:
  26              		.file 1 "source\\bsw\\cdd\\jasmin.c"
   1:source\bsw\cdd/jasmin.c **** /**
   2:source\bsw\cdd/jasmin.c **** * \file <filename>
   3:source\bsw\cdd/jasmin.c **** * \author <author-name>
   4:source\bsw\cdd/jasmin.c **** * \date <date>
   5:source\bsw\cdd/jasmin.c **** *
   6:source\bsw\cdd/jasmin.c **** * \brief <Symbolic File name>
   7:source\bsw\cdd/jasmin.c **** *
   8:source\bsw\cdd/jasmin.c **** * \copyright Copyright ©2016
   9:source\bsw\cdd/jasmin.c **** * Department of electrical engineering and information technology, Hochschule Darmstadt - Universit
  10:source\bsw\cdd/jasmin.c **** * Permission to use, copy, modify, and distribute this software and its documentation for education
  11:source\bsw\cdd/jasmin.c **** * (unless permitted by h_da) and official h_da projects, is hereby granted for enrolled students of
  12:source\bsw\cdd/jasmin.c **** * this paragraph and the following paragraph appear in all copies, modifications, and distributions
  13:source\bsw\cdd/jasmin.c **** * Contact Prof.Dr.-Ing. Peter Fromm, peter.fromm@h-da.de, Birkenweg 8 64295 Darmstadt - GERMANY for
  14:source\bsw\cdd/jasmin.c **** *
  15:source\bsw\cdd/jasmin.c **** * \warning This software is a PROTOTYPE version and is not designed or intended for use in producti
  16:source\bsw\cdd/jasmin.c **** * The user represents and warrants that it will NOT use or redistribute the Software for such purpo
  17:source\bsw\cdd/jasmin.c **** * This prototype is for research purposes only. This software is provided "AS IS," without a warran
  18:source\bsw\cdd/jasmin.c **** */
  19:source\bsw\cdd/jasmin.c **** 
  20:source\bsw\cdd/jasmin.c **** /*****************************************************************************/
  21:source\bsw\cdd/jasmin.c **** /* Include files                                                             */
  22:source\bsw\cdd/jasmin.c **** /*****************************************************************************/
  23:source\bsw\cdd/jasmin.c **** #include"jasmin.h"
  24:source\bsw\cdd/jasmin.c **** /*****************************************************************************/
  25:source\bsw\cdd/jasmin.c **** /* Local pre-processor symbols/macros ('#define')                            */
  26:source\bsw\cdd/jasmin.c **** /*****************************************************************************/
  27:source\bsw\cdd/jasmin.c **** 
  28:source\bsw\cdd/jasmin.c **** /*****************************************************************************/
  29:source\bsw\cdd/jasmin.c **** /* Global variable definitions (declared in header file with 'extern')       */
  30:source\bsw\cdd/jasmin.c **** /*****************************************************************************/
  31:source\bsw\cdd/jasmin.c **** 
ARM GAS  C:\Users\zakis\AppData\Local\Temp\ccNO2sok.s 			page 2


  32:source\bsw\cdd/jasmin.c **** /*****************************************************************************/
  33:source\bsw\cdd/jasmin.c **** /* Local type definitions ('typedef')                                        */
  34:source\bsw\cdd/jasmin.c **** /*****************************************************************************/
  35:source\bsw\cdd/jasmin.c **** 
  36:source\bsw\cdd/jasmin.c **** /*****************************************************************************/
  37:source\bsw\cdd/jasmin.c **** /* Local variable definitions ('static')                                     */
  38:source\bsw\cdd/jasmin.c **** /*****************************************************************************/
  39:source\bsw\cdd/jasmin.c **** 
  40:source\bsw\cdd/jasmin.c **** /*****************************************************************************/
  41:source\bsw\cdd/jasmin.c **** /* Function implementation - global ('extern') and local ('static')          */
  42:source\bsw\cdd/jasmin.c **** /*****************************************************************************/
  43:source\bsw\cdd/jasmin.c **** 
  44:source\bsw\cdd/jasmin.c **** /**
  45:source\bsw\cdd/jasmin.c ****  * Allocates a fresh unused token from the token pool.
  46:source\bsw\cdd/jasmin.c ****  */
  47:source\bsw\cdd/jasmin.c **** static jsmntok_t *jsmn_alloc_token(jsmn_parser *parser, jsmntok_t *tokens,
  48:source\bsw\cdd/jasmin.c ****                                    const size_t num_tokens) {
  27              		.loc 1 48 0
  28              		.cfi_startproc
  29              		@ args = 0, pretend = 0, frame = 0
  30              		@ frame_needed = 0, uses_anonymous_args = 0
  31              		@ link register save eliminated.
  32              	.LVL0:
  49:source\bsw\cdd/jasmin.c ****   jsmntok_t *tok;
  50:source\bsw\cdd/jasmin.c ****   if (parser->toknext >= num_tokens) {
  33              		.loc 1 50 0
  34 0000 4368     		ldr	r3, [r0, #4]
  35 0002 9342     		cmp	r3, r2
  36 0004 0AD2     		bcs	.L3
  51:source\bsw\cdd/jasmin.c ****     return NULL;
  52:source\bsw\cdd/jasmin.c ****   }
  53:source\bsw\cdd/jasmin.c ****   tok = &tokens[parser->toknext++];
  37              		.loc 1 53 0
  38 0006 5A1C     		adds	r2, r3, #1
  39              	.LVL1:
  40 0008 4260     		str	r2, [r0, #4]
  41 000a 01EB0310 		add	r0, r1, r3, lsl #4
  42              	.LVL2:
  54:source\bsw\cdd/jasmin.c ****   tok->start = tok->end = -1;
  43              		.loc 1 54 0
  44 000e 4FF0FF33 		mov	r3, #-1
  45 0012 8360     		str	r3, [r0, #8]
  46 0014 4360     		str	r3, [r0, #4]
  55:source\bsw\cdd/jasmin.c ****   tok->size = 0;
  47              		.loc 1 55 0
  48 0016 0023     		movs	r3, #0
  49 0018 C360     		str	r3, [r0, #12]
  56:source\bsw\cdd/jasmin.c **** #ifdef JSMN_PARENT_LINKS
  57:source\bsw\cdd/jasmin.c ****   tok->parent = -1;
  58:source\bsw\cdd/jasmin.c **** #endif
  59:source\bsw\cdd/jasmin.c ****   return tok;
  50              		.loc 1 59 0
  51 001a 7047     		bx	lr
  52              	.LVL3:
  53              	.L3:
  51:source\bsw\cdd/jasmin.c ****   }
  54              		.loc 1 51 0
ARM GAS  C:\Users\zakis\AppData\Local\Temp\ccNO2sok.s 			page 3


  55 001c 0020     		movs	r0, #0
  56              	.LVL4:
  60:source\bsw\cdd/jasmin.c **** }
  57              		.loc 1 60 0
  58 001e 7047     		bx	lr
  59              		.cfi_endproc
  60              	.LFE0:
  61              		.size	jsmn_alloc_token, .-jsmn_alloc_token
  62              		.section	.text.jsmn_fill_token,"ax",%progbits
  63              		.align	2
  64              		.thumb
  65              		.thumb_func
  66              		.type	jsmn_fill_token, %function
  67              	jsmn_fill_token:
  68              	.LFB1:
  61:source\bsw\cdd/jasmin.c ****                                 
  62:source\bsw\cdd/jasmin.c **** /**
  63:source\bsw\cdd/jasmin.c ****  * Fills token type and boundaries.
  64:source\bsw\cdd/jasmin.c ****  */
  65:source\bsw\cdd/jasmin.c ****  static void jsmn_fill_token(jsmntok_t *token, const jsmntype_t type,
  66:source\bsw\cdd/jasmin.c ****                             const int start, const int end) {
  69              		.loc 1 66 0
  70              		.cfi_startproc
  71              		@ args = 0, pretend = 0, frame = 0
  72              		@ frame_needed = 0, uses_anonymous_args = 0
  73              		@ link register save eliminated.
  74              	.LVL5:
  67:source\bsw\cdd/jasmin.c ****   token->type = type;
  75              		.loc 1 67 0
  76 0000 0170     		strb	r1, [r0]
  68:source\bsw\cdd/jasmin.c ****   token->start = start;
  77              		.loc 1 68 0
  78 0002 4260     		str	r2, [r0, #4]
  69:source\bsw\cdd/jasmin.c ****   token->end = end;
  79              		.loc 1 69 0
  80 0004 8360     		str	r3, [r0, #8]
  70:source\bsw\cdd/jasmin.c ****   token->size = 0;
  81              		.loc 1 70 0
  82 0006 0023     		movs	r3, #0
  83              	.LVL6:
  84 0008 C360     		str	r3, [r0, #12]
  85 000a 7047     		bx	lr
  86              		.cfi_endproc
  87              	.LFE1:
  88              		.size	jsmn_fill_token, .-jsmn_fill_token
  89              		.section	.text.jsmn_parse_primitive,"ax",%progbits
  90              		.align	2
  91              		.thumb
  92              		.thumb_func
  93              		.type	jsmn_parse_primitive, %function
  94              	jsmn_parse_primitive:
  95              	.LFB2:
  71:source\bsw\cdd/jasmin.c **** }
  72:source\bsw\cdd/jasmin.c ****                             
  73:source\bsw\cdd/jasmin.c **** /**
  74:source\bsw\cdd/jasmin.c ****  * Fills next available token with JSON primitive.
  75:source\bsw\cdd/jasmin.c ****  */
ARM GAS  C:\Users\zakis\AppData\Local\Temp\ccNO2sok.s 			page 4


  76:source\bsw\cdd/jasmin.c **** static int jsmn_parse_primitive(jsmn_parser *parser, const char *js,
  77:source\bsw\cdd/jasmin.c ****                                 const size_t len, jsmntok_t *tokens,
  78:source\bsw\cdd/jasmin.c ****                                 const size_t num_tokens) {
  96              		.loc 1 78 0
  97              		.cfi_startproc
  98              		@ args = 4, pretend = 0, frame = 0
  99              		@ frame_needed = 0, uses_anonymous_args = 0
 100              	.LVL7:
 101 0000 70B5     		push	{r4, r5, r6, lr}
 102              		.cfi_def_cfa_offset 16
 103              		.cfi_offset 4, -16
 104              		.cfi_offset 5, -12
 105              		.cfi_offset 6, -8
 106              		.cfi_offset 14, -4
  79:source\bsw\cdd/jasmin.c ****   jsmntok_t *token;
  80:source\bsw\cdd/jasmin.c ****   int start;
  81:source\bsw\cdd/jasmin.c **** 
  82:source\bsw\cdd/jasmin.c ****   start = parser->pos;
 107              		.loc 1 82 0
 108 0002 0668     		ldr	r6, [r0]
 109              	.LVL8:
  83:source\bsw\cdd/jasmin.c **** 
  84:source\bsw\cdd/jasmin.c ****   for (; parser->pos < len && js[parser->pos] != '\0'; parser->pos++) {
 110              		.loc 1 84 0
 111 0004 1DE0     		b	.L6
 112              	.L13:
  85:source\bsw\cdd/jasmin.c ****     switch (js[parser->pos]) {
 113              		.loc 1 85 0
 114 0006 202C     		cmp	r4, #32
 115 0008 21D0     		beq	.L8
 116 000a 06D8     		bhi	.L9
 117 000c 092C     		cmp	r4, #9
 118 000e 0ED3     		bcc	.L7
 119 0010 0A2C     		cmp	r4, #10
 120 0012 1CD9     		bls	.L8
 121 0014 0D2C     		cmp	r4, #13
 122 0016 0AD1     		bne	.L7
 123 0018 19E0     		b	.L8
 124              	.L9:
 125 001a 3A2C     		cmp	r4, #58
 126 001c 17D0     		beq	.L8
 127 001e 02D8     		bhi	.L10
 128 0020 2C2C     		cmp	r4, #44
 129 0022 04D1     		bne	.L7
 130 0024 13E0     		b	.L8
 131              	.L10:
 132 0026 5D2C     		cmp	r4, #93
 133 0028 11D0     		beq	.L8
 134 002a 7D2C     		cmp	r4, #125
 135 002c 0FD0     		beq	.L8
 136              	.L7:
  86:source\bsw\cdd/jasmin.c **** #ifndef JSMN_STRICT
  87:source\bsw\cdd/jasmin.c ****     /* In strict mode primitive must be followed by "," or "}" or "]" */
  88:source\bsw\cdd/jasmin.c ****     case ':':
  89:source\bsw\cdd/jasmin.c **** #endif
  90:source\bsw\cdd/jasmin.c ****     case '\t':
  91:source\bsw\cdd/jasmin.c ****     case '\r':
ARM GAS  C:\Users\zakis\AppData\Local\Temp\ccNO2sok.s 			page 5


  92:source\bsw\cdd/jasmin.c ****     case '\n':
  93:source\bsw\cdd/jasmin.c ****     case ' ':
  94:source\bsw\cdd/jasmin.c ****     case ',':
  95:source\bsw\cdd/jasmin.c ****     case ']':
  96:source\bsw\cdd/jasmin.c ****     case '}':
  97:source\bsw\cdd/jasmin.c ****       goto found;
  98:source\bsw\cdd/jasmin.c ****     default:
  99:source\bsw\cdd/jasmin.c ****                    /* to quiet a warning from gcc*/
 100:source\bsw\cdd/jasmin.c ****       break;
 101:source\bsw\cdd/jasmin.c ****     }
 102:source\bsw\cdd/jasmin.c ****     if (js[parser->pos] < 32 || js[parser->pos] >= 127) {
 137              		.loc 1 102 0
 138 002e 203C     		subs	r4, r4, #32
 139 0030 E4B2     		uxtb	r4, r4
 140 0032 5E2C     		cmp	r4, #94
 141 0034 03D9     		bls	.L11
 103:source\bsw\cdd/jasmin.c ****       parser->pos = start;
 142              		.loc 1 103 0
 143 0036 0660     		str	r6, [r0]
 104:source\bsw\cdd/jasmin.c ****       return JSMN_ERROR_INVAL;
 144              		.loc 1 104 0
 145 0038 6FF00100 		mvn	r0, #1
 146              	.LVL9:
 147 003c 70BD     		pop	{r4, r5, r6, pc}
 148              	.LVL10:
 149              	.L11:
  84:source\bsw\cdd/jasmin.c ****     switch (js[parser->pos]) {
 150              		.loc 1 84 0
 151 003e 0135     		adds	r5, r5, #1
 152 0040 0560     		str	r5, [r0]
 153              	.L6:
  84:source\bsw\cdd/jasmin.c ****     switch (js[parser->pos]) {
 154              		.loc 1 84 0 is_stmt 0 discriminator 1
 155 0042 0568     		ldr	r5, [r0]
 156 0044 9542     		cmp	r5, r2
 157 0046 02D2     		bcs	.L8
  84:source\bsw\cdd/jasmin.c ****     switch (js[parser->pos]) {
 158              		.loc 1 84 0 discriminator 2
 159 0048 4C5D     		ldrb	r4, [r1, r5]	@ zero_extendqisi2
 160 004a 002C     		cmp	r4, #0
 161 004c DBD1     		bne	.L13
 162              	.L8:
 105:source\bsw\cdd/jasmin.c ****     }
 106:source\bsw\cdd/jasmin.c ****   }
 107:source\bsw\cdd/jasmin.c **** #ifdef JSMN_STRICT
 108:source\bsw\cdd/jasmin.c ****   /* In strict mode primitive must be followed by a comma/object/array */
 109:source\bsw\cdd/jasmin.c ****   parser->pos = start;
 110:source\bsw\cdd/jasmin.c ****   return JSMN_ERROR_PART;
 111:source\bsw\cdd/jasmin.c **** #endif
 112:source\bsw\cdd/jasmin.c **** 
 113:source\bsw\cdd/jasmin.c **** found:
 114:source\bsw\cdd/jasmin.c ****   if (tokens == NULL) {
 163              		.loc 1 114 0 is_stmt 1
 164 004e 1BB9     		cbnz	r3, .L14
 115:source\bsw\cdd/jasmin.c ****     parser->pos--;
 165              		.loc 1 115 0
 166 0050 013D     		subs	r5, r5, #1
ARM GAS  C:\Users\zakis\AppData\Local\Temp\ccNO2sok.s 			page 6


 167 0052 0560     		str	r5, [r0]
 116:source\bsw\cdd/jasmin.c ****     return 0;
 168              		.loc 1 116 0
 169 0054 0020     		movs	r0, #0
 170              	.LVL11:
 171 0056 70BD     		pop	{r4, r5, r6, pc}
 172              	.LVL12:
 173              	.L14:
 174 0058 1946     		mov	r1, r3
 175              	.LVL13:
 176 005a 0446     		mov	r4, r0
 117:source\bsw\cdd/jasmin.c ****   }
 118:source\bsw\cdd/jasmin.c ****   token = jsmn_alloc_token(parser, tokens, num_tokens);
 177              		.loc 1 118 0
 178 005c 049A     		ldr	r2, [sp, #16]
 179              	.LVL14:
 180 005e FFF7FEFF 		bl	jsmn_alloc_token
 181              	.LVL15:
 119:source\bsw\cdd/jasmin.c ****   if (token == NULL) {
 182              		.loc 1 119 0
 183 0062 18B9     		cbnz	r0, .L15
 120:source\bsw\cdd/jasmin.c ****     parser->pos = start;
 184              		.loc 1 120 0
 185 0064 2660     		str	r6, [r4]
 121:source\bsw\cdd/jasmin.c ****     return JSMN_ERROR_NOMEM;
 186              		.loc 1 121 0
 187 0066 4FF0FF30 		mov	r0, #-1
 188              	.LVL16:
 189 006a 70BD     		pop	{r4, r5, r6, pc}
 190              	.LVL17:
 191              	.L15:
 122:source\bsw\cdd/jasmin.c ****   }
 123:source\bsw\cdd/jasmin.c ****   jsmn_fill_token(token, JSMN_PRIMITIVE, start, parser->pos);
 192              		.loc 1 123 0
 193 006c 2368     		ldr	r3, [r4]
 194 006e 3246     		mov	r2, r6
 195 0070 0821     		movs	r1, #8
 196 0072 FFF7FEFF 		bl	jsmn_fill_token
 197              	.LVL18:
 124:source\bsw\cdd/jasmin.c **** #ifdef JSMN_PARENT_LINKS
 125:source\bsw\cdd/jasmin.c ****   token->parent = parser->toksuper;
 126:source\bsw\cdd/jasmin.c **** #endif
 127:source\bsw\cdd/jasmin.c ****   parser->pos--;
 198              		.loc 1 127 0
 199 0076 2368     		ldr	r3, [r4]
 200 0078 013B     		subs	r3, r3, #1
 201 007a 2360     		str	r3, [r4]
 128:source\bsw\cdd/jasmin.c ****   return 0;
 202              		.loc 1 128 0
 203 007c 0020     		movs	r0, #0
 129:source\bsw\cdd/jasmin.c **** }
 204              		.loc 1 129 0
 205 007e 70BD     		pop	{r4, r5, r6, pc}
 206              		.cfi_endproc
 207              	.LFE2:
 208              		.size	jsmn_parse_primitive, .-jsmn_parse_primitive
 209              		.section	.text.jsmn_parse_string,"ax",%progbits
ARM GAS  C:\Users\zakis\AppData\Local\Temp\ccNO2sok.s 			page 7


 210              		.align	2
 211              		.thumb
 212              		.thumb_func
 213              		.type	jsmn_parse_string, %function
 214              	jsmn_parse_string:
 215              	.LFB3:
 130:source\bsw\cdd/jasmin.c **** 
 131:source\bsw\cdd/jasmin.c ****  /**
 132:source\bsw\cdd/jasmin.c ****  * Fills next token with JSON string.
 133:source\bsw\cdd/jasmin.c ****  */
 134:source\bsw\cdd/jasmin.c **** static int jsmn_parse_string(jsmn_parser *parser, const char *js,
 135:source\bsw\cdd/jasmin.c ****                              const size_t len, jsmntok_t *tokens,
 136:source\bsw\cdd/jasmin.c ****                              const size_t num_tokens) {
 216              		.loc 1 136 0
 217              		.cfi_startproc
 218              		@ args = 4, pretend = 0, frame = 0
 219              		@ frame_needed = 0, uses_anonymous_args = 0
 220              	.LVL19:
 221 0000 F8B5     		push	{r3, r4, r5, r6, r7, lr}
 222              		.cfi_def_cfa_offset 24
 223              		.cfi_offset 3, -24
 224              		.cfi_offset 4, -20
 225              		.cfi_offset 5, -16
 226              		.cfi_offset 6, -12
 227              		.cfi_offset 7, -8
 228              		.cfi_offset 14, -4
 137:source\bsw\cdd/jasmin.c ****   jsmntok_t *token;
 138:source\bsw\cdd/jasmin.c **** 
 139:source\bsw\cdd/jasmin.c ****   int start = parser->pos;
 229              		.loc 1 139 0
 230 0002 0668     		ldr	r6, [r0]
 231              	.LVL20:
 140:source\bsw\cdd/jasmin.c ****   
 141:source\bsw\cdd/jasmin.c ****   /* Skip starting quote */
 142:source\bsw\cdd/jasmin.c ****   parser->pos++;
 232              		.loc 1 142 0
 233 0004 741C     		adds	r4, r6, #1
 234 0006 0460     		str	r4, [r0]
 143:source\bsw\cdd/jasmin.c ****   
 144:source\bsw\cdd/jasmin.c ****   for (; parser->pos < len && js[parser->pos] != '\0'; parser->pos++) {
 235              		.loc 1 144 0
 236 0008 7AE0     		b	.L18
 237              	.L31:
 238              	.LVL21:
 239              	.LBB2:
 145:source\bsw\cdd/jasmin.c ****     char c = js[parser->pos];
 146:source\bsw\cdd/jasmin.c **** 
 147:source\bsw\cdd/jasmin.c ****     /* Quote: end of string */
 148:source\bsw\cdd/jasmin.c ****     if (c == '\"') {
 240              		.loc 1 148 0
 241 000a 222D     		cmp	r5, #34
 242 000c 13D1     		bne	.L19
 149:source\bsw\cdd/jasmin.c ****       if (tokens == NULL) {
 243              		.loc 1 149 0
 244 000e 002B     		cmp	r3, #0
 245 0010 00F08180 		beq	.L32
 246 0014 1946     		mov	r1, r3
ARM GAS  C:\Users\zakis\AppData\Local\Temp\ccNO2sok.s 			page 8


 247              	.LVL22:
 248 0016 0446     		mov	r4, r0
 150:source\bsw\cdd/jasmin.c ****         return 0;
 151:source\bsw\cdd/jasmin.c ****       }
 152:source\bsw\cdd/jasmin.c ****       token = jsmn_alloc_token(parser, tokens, num_tokens);
 249              		.loc 1 152 0
 250 0018 069A     		ldr	r2, [sp, #24]
 251              	.LVL23:
 252 001a FFF7FEFF 		bl	jsmn_alloc_token
 253              	.LVL24:
 153:source\bsw\cdd/jasmin.c ****       if (token == NULL) {
 254              		.loc 1 153 0
 255 001e 18B9     		cbnz	r0, .L21
 154:source\bsw\cdd/jasmin.c ****         parser->pos = start;
 256              		.loc 1 154 0
 257 0020 2660     		str	r6, [r4]
 155:source\bsw\cdd/jasmin.c ****         return JSMN_ERROR_NOMEM;
 258              		.loc 1 155 0
 259 0022 4FF0FF30 		mov	r0, #-1
 260              	.LVL25:
 261 0026 F8BD     		pop	{r3, r4, r5, r6, r7, pc}
 262              	.LVL26:
 263              	.L21:
 156:source\bsw\cdd/jasmin.c ****       }
 157:source\bsw\cdd/jasmin.c ****       jsmn_fill_token(token, JSMN_STRING, start + 1, parser->pos);
 264              		.loc 1 157 0
 265 0028 2368     		ldr	r3, [r4]
 266 002a 721C     		adds	r2, r6, #1
 267 002c 0421     		movs	r1, #4
 268 002e FFF7FEFF 		bl	jsmn_fill_token
 269              	.LVL27:
 158:source\bsw\cdd/jasmin.c **** #ifdef JSMN_PARENT_LINKS
 159:source\bsw\cdd/jasmin.c ****       token->parent = parser->toksuper;
 160:source\bsw\cdd/jasmin.c **** #endif
 161:source\bsw\cdd/jasmin.c ****       return 0;
 270              		.loc 1 161 0
 271 0032 0020     		movs	r0, #0
 272 0034 F8BD     		pop	{r3, r4, r5, r6, r7, pc}
 273              	.LVL28:
 274              	.L19:
 162:source\bsw\cdd/jasmin.c ****     }
 163:source\bsw\cdd/jasmin.c **** 
 164:source\bsw\cdd/jasmin.c ****     /* Backslash: Quoted symbol expected */
 165:source\bsw\cdd/jasmin.c ****     if (c == '\\' && parser->pos + 1 < len) {
 275              		.loc 1 165 0
 276 0036 5C2D     		cmp	r5, #92
 277 0038 5FD1     		bne	.L22
 278              		.loc 1 165 0 is_stmt 0 discriminator 1
 279 003a 0134     		adds	r4, r4, #1
 280 003c A242     		cmp	r2, r4
 281 003e 5CD9     		bls	.L22
 282              	.LBB3:
 166:source\bsw\cdd/jasmin.c ****       int i;
 167:source\bsw\cdd/jasmin.c ****       parser->pos++;
 283              		.loc 1 167 0 is_stmt 1
 284 0040 0460     		str	r4, [r0]
 168:source\bsw\cdd/jasmin.c ****       switch (js[parser->pos]) {
ARM GAS  C:\Users\zakis\AppData\Local\Temp\ccNO2sok.s 			page 9


 285              		.loc 1 168 0
 286 0042 0D5D     		ldrb	r5, [r1, r4]	@ zero_extendqisi2
 287              	.LVL29:
 288 0044 223D     		subs	r5, r5, #34
 289 0046 532D     		cmp	r5, #83
 290 0048 53D8     		bhi	.L23
 291 004a DFE805F0 		tbb	[pc, r5]
 292              	.L24:
 293 004e 56       		.byte	(.L22-.L24)/2
 294 004f 52       		.byte	(.L23-.L24)/2
 295 0050 52       		.byte	(.L23-.L24)/2
 296 0051 52       		.byte	(.L23-.L24)/2
 297 0052 52       		.byte	(.L23-.L24)/2
 298 0053 52       		.byte	(.L23-.L24)/2
 299 0054 52       		.byte	(.L23-.L24)/2
 300 0055 52       		.byte	(.L23-.L24)/2
 301 0056 52       		.byte	(.L23-.L24)/2
 302 0057 52       		.byte	(.L23-.L24)/2
 303 0058 52       		.byte	(.L23-.L24)/2
 304 0059 52       		.byte	(.L23-.L24)/2
 305 005a 52       		.byte	(.L23-.L24)/2
 306 005b 56       		.byte	(.L22-.L24)/2
 307 005c 52       		.byte	(.L23-.L24)/2
 308 005d 52       		.byte	(.L23-.L24)/2
 309 005e 52       		.byte	(.L23-.L24)/2
 310 005f 52       		.byte	(.L23-.L24)/2
 311 0060 52       		.byte	(.L23-.L24)/2
 312 0061 52       		.byte	(.L23-.L24)/2
 313 0062 52       		.byte	(.L23-.L24)/2
 314 0063 52       		.byte	(.L23-.L24)/2
 315 0064 52       		.byte	(.L23-.L24)/2
 316 0065 52       		.byte	(.L23-.L24)/2
 317 0066 52       		.byte	(.L23-.L24)/2
 318 0067 52       		.byte	(.L23-.L24)/2
 319 0068 52       		.byte	(.L23-.L24)/2
 320 0069 52       		.byte	(.L23-.L24)/2
 321 006a 52       		.byte	(.L23-.L24)/2
 322 006b 52       		.byte	(.L23-.L24)/2
 323 006c 52       		.byte	(.L23-.L24)/2
 324 006d 52       		.byte	(.L23-.L24)/2
 325 006e 52       		.byte	(.L23-.L24)/2
 326 006f 52       		.byte	(.L23-.L24)/2
 327 0070 52       		.byte	(.L23-.L24)/2
 328 0071 52       		.byte	(.L23-.L24)/2
 329 0072 52       		.byte	(.L23-.L24)/2
 330 0073 52       		.byte	(.L23-.L24)/2
 331 0074 52       		.byte	(.L23-.L24)/2
 332 0075 52       		.byte	(.L23-.L24)/2
 333 0076 52       		.byte	(.L23-.L24)/2
 334 0077 52       		.byte	(.L23-.L24)/2
 335 0078 52       		.byte	(.L23-.L24)/2
 336 0079 52       		.byte	(.L23-.L24)/2
 337 007a 52       		.byte	(.L23-.L24)/2
 338 007b 52       		.byte	(.L23-.L24)/2
 339 007c 52       		.byte	(.L23-.L24)/2
 340 007d 52       		.byte	(.L23-.L24)/2
 341 007e 52       		.byte	(.L23-.L24)/2
ARM GAS  C:\Users\zakis\AppData\Local\Temp\ccNO2sok.s 			page 10


 342 007f 52       		.byte	(.L23-.L24)/2
 343 0080 52       		.byte	(.L23-.L24)/2
 344 0081 52       		.byte	(.L23-.L24)/2
 345 0082 52       		.byte	(.L23-.L24)/2
 346 0083 52       		.byte	(.L23-.L24)/2
 347 0084 52       		.byte	(.L23-.L24)/2
 348 0085 52       		.byte	(.L23-.L24)/2
 349 0086 52       		.byte	(.L23-.L24)/2
 350 0087 52       		.byte	(.L23-.L24)/2
 351 0088 56       		.byte	(.L22-.L24)/2
 352 0089 52       		.byte	(.L23-.L24)/2
 353 008a 52       		.byte	(.L23-.L24)/2
 354 008b 52       		.byte	(.L23-.L24)/2
 355 008c 52       		.byte	(.L23-.L24)/2
 356 008d 52       		.byte	(.L23-.L24)/2
 357 008e 56       		.byte	(.L22-.L24)/2
 358 008f 52       		.byte	(.L23-.L24)/2
 359 0090 52       		.byte	(.L23-.L24)/2
 360 0091 52       		.byte	(.L23-.L24)/2
 361 0092 56       		.byte	(.L22-.L24)/2
 362 0093 52       		.byte	(.L23-.L24)/2
 363 0094 52       		.byte	(.L23-.L24)/2
 364 0095 52       		.byte	(.L23-.L24)/2
 365 0096 52       		.byte	(.L23-.L24)/2
 366 0097 52       		.byte	(.L23-.L24)/2
 367 0098 52       		.byte	(.L23-.L24)/2
 368 0099 52       		.byte	(.L23-.L24)/2
 369 009a 56       		.byte	(.L22-.L24)/2
 370 009b 52       		.byte	(.L23-.L24)/2
 371 009c 52       		.byte	(.L23-.L24)/2
 372 009d 52       		.byte	(.L23-.L24)/2
 373 009e 56       		.byte	(.L22-.L24)/2
 374 009f 52       		.byte	(.L23-.L24)/2
 375 00a0 56       		.byte	(.L22-.L24)/2
 376 00a1 2A       		.byte	(.L25-.L24)/2
 377              		.p2align 1
 378              	.L25:
 169:source\bsw\cdd/jasmin.c ****       /* Allowed escaped symbols */
 170:source\bsw\cdd/jasmin.c ****       case '\"':
 171:source\bsw\cdd/jasmin.c ****       case '/':
 172:source\bsw\cdd/jasmin.c ****       case '\\':
 173:source\bsw\cdd/jasmin.c ****       case 'b':
 174:source\bsw\cdd/jasmin.c ****       case 'f':
 175:source\bsw\cdd/jasmin.c ****       case 'r':
 176:source\bsw\cdd/jasmin.c ****       case 'n':
 177:source\bsw\cdd/jasmin.c ****       case 't':
 178:source\bsw\cdd/jasmin.c ****         break;
 179:source\bsw\cdd/jasmin.c ****       /* Allows escaped symbol \uXXXX */
 180:source\bsw\cdd/jasmin.c ****       case 'u':
 181:source\bsw\cdd/jasmin.c ****         parser->pos++;
 379              		.loc 1 181 0
 380 00a2 0134     		adds	r4, r4, #1
 381 00a4 0460     		str	r4, [r0]
 382              	.LVL30:
 182:source\bsw\cdd/jasmin.c ****         for (i = 0; i < 4 && parser->pos < len && js[parser->pos] != '\0';
 383              		.loc 1 182 0
 384 00a6 4FF0000E 		mov	lr, #0
ARM GAS  C:\Users\zakis\AppData\Local\Temp\ccNO2sok.s 			page 11


 385 00aa 15E0     		b	.L26
 386              	.LVL31:
 387              	.L29:
 183:source\bsw\cdd/jasmin.c ****              i++) {
 184:source\bsw\cdd/jasmin.c ****           /* If it isn't a hex character we have an error */
 185:source\bsw\cdd/jasmin.c ****           if (!((js[parser->pos] >= 48 && js[parser->pos] <= 57) ||   /* 0-9 */
 388              		.loc 1 185 0
 389 00ac A5F13007 		sub	r7, r5, #48
 390 00b0 FFB2     		uxtb	r7, r7
 391 00b2 092F     		cmp	r7, #9
 392 00b4 0CD9     		bls	.L27
 186:source\bsw\cdd/jasmin.c ****                 (js[parser->pos] >= 65 && js[parser->pos] <= 70) ||   /* A-F */
 393              		.loc 1 186 0 discriminator 1
 394 00b6 A5F14107 		sub	r7, r5, #65
 395 00ba FFB2     		uxtb	r7, r7
 185:source\bsw\cdd/jasmin.c ****                 (js[parser->pos] >= 65 && js[parser->pos] <= 70) ||   /* A-F */
 396              		.loc 1 185 0 discriminator 1
 397 00bc 052F     		cmp	r7, #5
 398 00be 07D9     		bls	.L27
 187:source\bsw\cdd/jasmin.c ****                 (js[parser->pos] >= 97 && js[parser->pos] <= 102))) { /* a-f */
 399              		.loc 1 187 0 discriminator 2
 400 00c0 613D     		subs	r5, r5, #97
 401 00c2 EDB2     		uxtb	r5, r5
 185:source\bsw\cdd/jasmin.c ****                 (js[parser->pos] >= 65 && js[parser->pos] <= 70) ||   /* A-F */
 402              		.loc 1 185 0 discriminator 2
 403 00c4 052D     		cmp	r5, #5
 404 00c6 03D9     		bls	.L27
 188:source\bsw\cdd/jasmin.c ****             parser->pos = start;
 405              		.loc 1 188 0
 406 00c8 0660     		str	r6, [r0]
 189:source\bsw\cdd/jasmin.c ****             return JSMN_ERROR_INVAL;
 407              		.loc 1 189 0
 408 00ca 6FF00100 		mvn	r0, #1
 409              	.LVL32:
 410 00ce F8BD     		pop	{r3, r4, r5, r6, r7, pc}
 411              	.LVL33:
 412              	.L27:
 190:source\bsw\cdd/jasmin.c ****           }
 191:source\bsw\cdd/jasmin.c ****           parser->pos++;
 413              		.loc 1 191 0
 414 00d0 0134     		adds	r4, r4, #1
 415 00d2 0460     		str	r4, [r0]
 183:source\bsw\cdd/jasmin.c ****           /* If it isn't a hex character we have an error */
 416              		.loc 1 183 0
 417 00d4 0EF1010E 		add	lr, lr, #1
 418              	.LVL34:
 419              	.L26:
 182:source\bsw\cdd/jasmin.c ****              i++) {
 420              		.loc 1 182 0 discriminator 1
 421 00d8 BEF1030F 		cmp	lr, #3
 422 00dc 05DC     		bgt	.L28
 182:source\bsw\cdd/jasmin.c ****              i++) {
 423              		.loc 1 182 0 is_stmt 0 discriminator 2
 424 00de 0468     		ldr	r4, [r0]
 425 00e0 A242     		cmp	r2, r4
 426 00e2 02D9     		bls	.L28
 182:source\bsw\cdd/jasmin.c ****              i++) {
ARM GAS  C:\Users\zakis\AppData\Local\Temp\ccNO2sok.s 			page 12


 427              		.loc 1 182 0 discriminator 3
 428 00e4 0D5D     		ldrb	r5, [r1, r4]	@ zero_extendqisi2
 429 00e6 002D     		cmp	r5, #0
 430 00e8 E0D1     		bne	.L29
 431              	.L28:
 192:source\bsw\cdd/jasmin.c ****         }
 193:source\bsw\cdd/jasmin.c ****         parser->pos--;
 432              		.loc 1 193 0 is_stmt 1
 433 00ea 0468     		ldr	r4, [r0]
 434 00ec 013C     		subs	r4, r4, #1
 435 00ee 0460     		str	r4, [r0]
 194:source\bsw\cdd/jasmin.c ****         break;
 436              		.loc 1 194 0
 437 00f0 03E0     		b	.L22
 438              	.LVL35:
 439              	.L23:
 195:source\bsw\cdd/jasmin.c ****       /* Unexpected symbol */
 196:source\bsw\cdd/jasmin.c ****       default:
 197:source\bsw\cdd/jasmin.c ****         parser->pos = start;
 440              		.loc 1 197 0
 441 00f2 0660     		str	r6, [r0]
 198:source\bsw\cdd/jasmin.c ****         return JSMN_ERROR_INVAL;
 442              		.loc 1 198 0
 443 00f4 6FF00100 		mvn	r0, #1
 444              	.LVL36:
 445 00f8 F8BD     		pop	{r3, r4, r5, r6, r7, pc}
 446              	.LVL37:
 447              	.L22:
 448              	.LBE3:
 449              	.LBE2:
 144:source\bsw\cdd/jasmin.c ****     char c = js[parser->pos];
 450              		.loc 1 144 0
 451 00fa 0468     		ldr	r4, [r0]
 452 00fc 0134     		adds	r4, r4, #1
 453 00fe 0460     		str	r4, [r0]
 454              	.L18:
 144:source\bsw\cdd/jasmin.c ****     char c = js[parser->pos];
 455              		.loc 1 144 0 is_stmt 0 discriminator 1
 456 0100 0468     		ldr	r4, [r0]
 457 0102 9442     		cmp	r4, r2
 458 0104 03D2     		bcs	.L30
 144:source\bsw\cdd/jasmin.c ****     char c = js[parser->pos];
 459              		.loc 1 144 0 discriminator 2
 460 0106 0D5D     		ldrb	r5, [r1, r4]	@ zero_extendqisi2
 461 0108 002D     		cmp	r5, #0
 462 010a 7FF47EAF 		bne	.L31
 463              	.L30:
 199:source\bsw\cdd/jasmin.c ****       }
 200:source\bsw\cdd/jasmin.c ****     }
 201:source\bsw\cdd/jasmin.c ****   }
 202:source\bsw\cdd/jasmin.c ****   parser->pos = start;
 464              		.loc 1 202 0 is_stmt 1
 465 010e 0660     		str	r6, [r0]
 203:source\bsw\cdd/jasmin.c ****   return JSMN_ERROR_PART;
 466              		.loc 1 203 0
 467 0110 6FF00200 		mvn	r0, #2
 468              	.LVL38:
ARM GAS  C:\Users\zakis\AppData\Local\Temp\ccNO2sok.s 			page 13


 469 0114 F8BD     		pop	{r3, r4, r5, r6, r7, pc}
 470              	.LVL39:
 471              	.L32:
 472              	.LBB4:
 150:source\bsw\cdd/jasmin.c ****       }
 473              		.loc 1 150 0
 474 0116 0020     		movs	r0, #0
 475              	.LVL40:
 476              	.LBE4:
 204:source\bsw\cdd/jasmin.c **** }                    
 477              		.loc 1 204 0
 478 0118 F8BD     		pop	{r3, r4, r5, r6, r7, pc}
 479              		.cfi_endproc
 480              	.LFE3:
 481              		.size	jsmn_parse_string, .-jsmn_parse_string
 482 011a 00BF     		.section	.text.jsmn_parse,"ax",%progbits
 483              		.align	2
 484              		.global	jsmn_parse
 485              		.thumb
 486              		.thumb_func
 487              		.type	jsmn_parse, %function
 488              	jsmn_parse:
 489              	.LFB4:
 205:source\bsw\cdd/jasmin.c **** /**
 206:source\bsw\cdd/jasmin.c ****  * Parse JSON string and fill tokens.
 207:source\bsw\cdd/jasmin.c ****  */
 208:source\bsw\cdd/jasmin.c **** JSMN_API int jsmn_parse(jsmn_parser *parser, const char *js, const size_t len,
 209:source\bsw\cdd/jasmin.c ****                         jsmntok_t *tokens, const unsigned int num_tokens) {
 490              		.loc 1 209 0
 491              		.cfi_startproc
 492              		@ args = 4, pretend = 0, frame = 0
 493              		@ frame_needed = 0, uses_anonymous_args = 0
 494              	.LVL41:
 495 0000 2DE9F047 		push	{r4, r5, r6, r7, r8, r9, r10, lr}
 496              		.cfi_def_cfa_offset 32
 497              		.cfi_offset 4, -32
 498              		.cfi_offset 5, -28
 499              		.cfi_offset 6, -24
 500              		.cfi_offset 7, -20
 501              		.cfi_offset 8, -16
 502              		.cfi_offset 9, -12
 503              		.cfi_offset 10, -8
 504              		.cfi_offset 14, -4
 505 0004 82B0     		sub	sp, sp, #8
 506              		.cfi_def_cfa_offset 40
 507 0006 0646     		mov	r6, r0
 508 0008 8846     		mov	r8, r1
 509 000a 1746     		mov	r7, r2
 510 000c 1D46     		mov	r5, r3
 511 000e DDF828A0 		ldr	r10, [sp, #40]
 210:source\bsw\cdd/jasmin.c ****   int r;
 211:source\bsw\cdd/jasmin.c ****   int i;
 212:source\bsw\cdd/jasmin.c ****   jsmntok_t *token;
 213:source\bsw\cdd/jasmin.c ****   int count = parser->toknext;
 512              		.loc 1 213 0
 513 0012 D0F80490 		ldr	r9, [r0, #4]
 514              	.LVL42:
ARM GAS  C:\Users\zakis\AppData\Local\Temp\ccNO2sok.s 			page 14


 214:source\bsw\cdd/jasmin.c **** 
 215:source\bsw\cdd/jasmin.c ****   for (; parser->pos < len && js[parser->pos] != '\0'; parser->pos++) {
 515              		.loc 1 215 0
 516 0016 D1E0     		b	.L35
 517              	.LVL43:
 518              	.L61:
 519              	.LBB5:
 216:source\bsw\cdd/jasmin.c ****     char c;
 217:source\bsw\cdd/jasmin.c ****     jsmntype_t type;
 218:source\bsw\cdd/jasmin.c **** 
 219:source\bsw\cdd/jasmin.c ****     c = js[parser->pos];
 220:source\bsw\cdd/jasmin.c ****     switch (c) {
 520              		.loc 1 220 0
 521 0018 2C2C     		cmp	r4, #44
 522 001a 00F09280 		beq	.L37
 523 001e 0ED8     		bhi	.L38
 524 0020 0D2C     		cmp	r4, #13
 525 0022 00F0C880 		beq	.L39
 526 0026 04D8     		bhi	.L40
 527 0028 093C     		subs	r4, r4, #9
 528              	.LVL44:
 529 002a 012C     		cmp	r4, #1
 530 002c 40F2C380 		bls	.L39
 531 0030 ABE0     		b	.L36
 532              	.LVL45:
 533              	.L40:
 534 0032 202C     		cmp	r4, #32
 535 0034 00F0BF80 		beq	.L39
 536 0038 222C     		cmp	r4, #34
 537 003a 66D0     		beq	.L41
 538 003c A5E0     		b	.L36
 539              	.L38:
 540 003e 5D2C     		cmp	r4, #93
 541 0040 2DD0     		beq	.L42
 542 0042 04D8     		bhi	.L43
 543 0044 3A2C     		cmp	r4, #58
 544 0046 78D0     		beq	.L44
 545 0048 5B2C     		cmp	r4, #91
 546 004a 05D0     		beq	.L45
 547 004c 9DE0     		b	.L36
 548              	.L43:
 549 004e 7B2C     		cmp	r4, #123
 550 0050 02D0     		beq	.L45
 551 0052 7D2C     		cmp	r4, #125
 552 0054 23D0     		beq	.L42
 553 0056 98E0     		b	.L36
 554              	.L45:
 221:source\bsw\cdd/jasmin.c ****     case '{':
 222:source\bsw\cdd/jasmin.c ****     case '[':
 223:source\bsw\cdd/jasmin.c ****       count++;
 555              		.loc 1 223 0
 556 0058 09F10109 		add	r9, r9, #1
 557              	.LVL46:
 224:source\bsw\cdd/jasmin.c ****       if (tokens == NULL) {
 558              		.loc 1 224 0
 559 005c 002D     		cmp	r5, #0
 560 005e 00F0AA80 		beq	.L39
ARM GAS  C:\Users\zakis\AppData\Local\Temp\ccNO2sok.s 			page 15


 225:source\bsw\cdd/jasmin.c ****         break;
 226:source\bsw\cdd/jasmin.c ****       }
 227:source\bsw\cdd/jasmin.c ****       token = jsmn_alloc_token(parser, tokens, num_tokens);
 561              		.loc 1 227 0
 562 0062 5246     		mov	r2, r10
 563 0064 2946     		mov	r1, r5
 564 0066 3046     		mov	r0, r6
 565 0068 FFF7FEFF 		bl	jsmn_alloc_token
 566              	.LVL47:
 228:source\bsw\cdd/jasmin.c ****       if (token == NULL) {
 567              		.loc 1 228 0
 568 006c 0146     		mov	r1, r0
 569 006e 0028     		cmp	r0, #0
 570 0070 00F0BF80 		beq	.L65
 229:source\bsw\cdd/jasmin.c ****         return JSMN_ERROR_NOMEM;
 230:source\bsw\cdd/jasmin.c ****       }
 231:source\bsw\cdd/jasmin.c ****       if (parser->toksuper != -1) {
 571              		.loc 1 231 0
 572 0074 B368     		ldr	r3, [r6, #8]
 573 0076 B3F1FF3F 		cmp	r3, #-1
 574 007a 04D0     		beq	.L47
 575              	.LBB6:
 232:source\bsw\cdd/jasmin.c ****         jsmntok_t *t = &tokens[parser->toksuper];
 576              		.loc 1 232 0
 577 007c 05EB0313 		add	r3, r5, r3, lsl #4
 578              	.LVL48:
 233:source\bsw\cdd/jasmin.c **** #ifdef JSMN_STRICT
 234:source\bsw\cdd/jasmin.c ****         /* In strict mode an object or array can't become a key */
 235:source\bsw\cdd/jasmin.c ****         if (t->type == JSMN_OBJECT) {
 236:source\bsw\cdd/jasmin.c ****           return JSMN_ERROR_INVAL;
 237:source\bsw\cdd/jasmin.c ****         }
 238:source\bsw\cdd/jasmin.c **** #endif
 239:source\bsw\cdd/jasmin.c ****         t->size++;
 579              		.loc 1 239 0
 580 0080 DA68     		ldr	r2, [r3, #12]
 581 0082 0132     		adds	r2, r2, #1
 582 0084 DA60     		str	r2, [r3, #12]
 583              	.LVL49:
 584              	.L47:
 585              	.LBE6:
 240:source\bsw\cdd/jasmin.c **** #ifdef JSMN_PARENT_LINKS
 241:source\bsw\cdd/jasmin.c ****         token->parent = parser->toksuper;
 242:source\bsw\cdd/jasmin.c **** #endif
 243:source\bsw\cdd/jasmin.c ****       }
 244:source\bsw\cdd/jasmin.c ****       token->type = (c == '{' ? JSMN_OBJECT : JSMN_ARRAY);
 586              		.loc 1 244 0
 587 0086 7B2C     		cmp	r4, #123
 588 0088 01D1     		bne	.L66
 589 008a 0123     		movs	r3, #1
 590 008c 00E0     		b	.L48
 591              	.L66:
 592 008e 0223     		movs	r3, #2
 593              	.L48:
 594              		.loc 1 244 0 is_stmt 0 discriminator 4
 595 0090 0B70     		strb	r3, [r1]
 245:source\bsw\cdd/jasmin.c ****       token->start = parser->pos;
 596              		.loc 1 245 0 is_stmt 1 discriminator 4
ARM GAS  C:\Users\zakis\AppData\Local\Temp\ccNO2sok.s 			page 16


 597 0092 3368     		ldr	r3, [r6]
 598 0094 4B60     		str	r3, [r1, #4]
 246:source\bsw\cdd/jasmin.c ****       parser->toksuper = parser->toknext - 1;
 599              		.loc 1 246 0 discriminator 4
 600 0096 7368     		ldr	r3, [r6, #4]
 601 0098 013B     		subs	r3, r3, #1
 602 009a B360     		str	r3, [r6, #8]
 247:source\bsw\cdd/jasmin.c ****       break;
 603              		.loc 1 247 0 discriminator 4
 604 009c 8BE0     		b	.L39
 605              	.LVL50:
 606              	.L42:
 248:source\bsw\cdd/jasmin.c ****     case '}':
 249:source\bsw\cdd/jasmin.c ****     case ']':
 250:source\bsw\cdd/jasmin.c ****       if (tokens == NULL) {
 607              		.loc 1 250 0
 608 009e 002D     		cmp	r5, #0
 609 00a0 00F08980 		beq	.L39
 251:source\bsw\cdd/jasmin.c ****         break;
 252:source\bsw\cdd/jasmin.c ****       }
 253:source\bsw\cdd/jasmin.c ****       type = (c == '}' ? JSMN_OBJECT : JSMN_ARRAY);
 610              		.loc 1 253 0
 611 00a4 7D2C     		cmp	r4, #125
 612 00a6 01D1     		bne	.L67
 613 00a8 0124     		movs	r4, #1
 614              	.LVL51:
 615 00aa 00E0     		b	.L49
 616              	.LVL52:
 617              	.L67:
 618 00ac 0224     		movs	r4, #2
 619              	.LVL53:
 620              	.L49:
 254:source\bsw\cdd/jasmin.c **** #ifdef JSMN_PARENT_LINKS
 255:source\bsw\cdd/jasmin.c ****       if (parser->toknext < 1) {
 256:source\bsw\cdd/jasmin.c ****         return JSMN_ERROR_INVAL;
 257:source\bsw\cdd/jasmin.c ****       }
 258:source\bsw\cdd/jasmin.c ****       token = &tokens[parser->toknext - 1];
 259:source\bsw\cdd/jasmin.c ****       for (;;) {
 260:source\bsw\cdd/jasmin.c ****         if (token->start != -1 && token->end == -1) {
 261:source\bsw\cdd/jasmin.c ****           if (token->type != type) {
 262:source\bsw\cdd/jasmin.c ****             return JSMN_ERROR_INVAL;
 263:source\bsw\cdd/jasmin.c ****           }
 264:source\bsw\cdd/jasmin.c ****           token->end = parser->pos + 1;
 265:source\bsw\cdd/jasmin.c ****           parser->toksuper = token->parent;
 266:source\bsw\cdd/jasmin.c ****           break;
 267:source\bsw\cdd/jasmin.c ****         }
 268:source\bsw\cdd/jasmin.c ****         if (token->parent == -1) {
 269:source\bsw\cdd/jasmin.c ****           if (token->type != type || parser->toksuper == -1) {
 270:source\bsw\cdd/jasmin.c ****             return JSMN_ERROR_INVAL;
 271:source\bsw\cdd/jasmin.c ****           }
 272:source\bsw\cdd/jasmin.c ****           break;
 273:source\bsw\cdd/jasmin.c ****         }
 274:source\bsw\cdd/jasmin.c ****         token = &tokens[token->parent];
 275:source\bsw\cdd/jasmin.c ****       }
 276:source\bsw\cdd/jasmin.c **** #else
 277:source\bsw\cdd/jasmin.c ****       for (i = parser->toknext - 1; i >= 0; i--) {
 621              		.loc 1 277 0 discriminator 4
ARM GAS  C:\Users\zakis\AppData\Local\Temp\ccNO2sok.s 			page 17


 622 00ae 7368     		ldr	r3, [r6, #4]
 623 00b0 013B     		subs	r3, r3, #1
 624              	.LVL54:
 625 00b2 14E0     		b	.L50
 626              	.L53:
 278:source\bsw\cdd/jasmin.c ****         token = &tokens[i];
 627              		.loc 1 278 0
 628 00b4 05EB0312 		add	r2, r5, r3, lsl #4
 629              	.LVL55:
 279:source\bsw\cdd/jasmin.c ****         if (token->start != -1 && token->end == -1) {
 630              		.loc 1 279 0
 631 00b8 5068     		ldr	r0, [r2, #4]
 632 00ba B0F1FF3F 		cmp	r0, #-1
 633 00be 0DD0     		beq	.L51
 634              		.loc 1 279 0 is_stmt 0 discriminator 1
 635 00c0 9068     		ldr	r0, [r2, #8]
 636 00c2 B0F1FF3F 		cmp	r0, #-1
 637 00c6 09D1     		bne	.L51
 280:source\bsw\cdd/jasmin.c ****           if (token->type != type) {
 638              		.loc 1 280 0 is_stmt 1
 639 00c8 1078     		ldrb	r0, [r2]	@ zero_extendqisi2
 640 00ca 8442     		cmp	r4, r0
 641 00cc 40F09480 		bne	.L68
 281:source\bsw\cdd/jasmin.c ****             return JSMN_ERROR_INVAL;
 282:source\bsw\cdd/jasmin.c ****           }
 283:source\bsw\cdd/jasmin.c ****           parser->toksuper = -1;
 642              		.loc 1 283 0
 643 00d0 4FF0FF30 		mov	r0, #-1
 644 00d4 B060     		str	r0, [r6, #8]
 284:source\bsw\cdd/jasmin.c ****           token->end = parser->pos + 1;
 645              		.loc 1 284 0
 646 00d6 0131     		adds	r1, r1, #1
 647 00d8 9160     		str	r1, [r2, #8]
 285:source\bsw\cdd/jasmin.c ****           break;
 648              		.loc 1 285 0
 649 00da 02E0     		b	.L52
 650              	.L51:
 277:source\bsw\cdd/jasmin.c ****         token = &tokens[i];
 651              		.loc 1 277 0 discriminator 2
 652 00dc 013B     		subs	r3, r3, #1
 653              	.LVL56:
 654              	.L50:
 277:source\bsw\cdd/jasmin.c ****         token = &tokens[i];
 655              		.loc 1 277 0 is_stmt 0 discriminator 1
 656 00de 002B     		cmp	r3, #0
 657 00e0 E8DA     		bge	.L53
 658              	.L52:
 286:source\bsw\cdd/jasmin.c ****         }
 287:source\bsw\cdd/jasmin.c ****       }
 288:source\bsw\cdd/jasmin.c ****       /* Error if unmatched closing bracket */
 289:source\bsw\cdd/jasmin.c ****       if (i == -1) {
 659              		.loc 1 289 0 is_stmt 1
 660 00e2 B3F1FF3F 		cmp	r3, #-1
 661 00e6 0DD1     		bne	.L54
 662 00e8 89E0     		b	.L69
 663              	.L56:
 290:source\bsw\cdd/jasmin.c ****         return JSMN_ERROR_INVAL;
ARM GAS  C:\Users\zakis\AppData\Local\Temp\ccNO2sok.s 			page 18


 291:source\bsw\cdd/jasmin.c ****       }
 292:source\bsw\cdd/jasmin.c ****       for (; i >= 0; i--) {
 293:source\bsw\cdd/jasmin.c ****         token = &tokens[i];
 664              		.loc 1 293 0
 665 00ea 05EB0312 		add	r2, r5, r3, lsl #4
 666              	.LVL57:
 294:source\bsw\cdd/jasmin.c ****         if (token->start != -1 && token->end == -1) {
 667              		.loc 1 294 0
 668 00ee 5168     		ldr	r1, [r2, #4]
 669 00f0 B1F1FF3F 		cmp	r1, #-1
 670 00f4 05D0     		beq	.L55
 671              		.loc 1 294 0 is_stmt 0 discriminator 1
 672 00f6 9268     		ldr	r2, [r2, #8]
 673              	.LVL58:
 674 00f8 B2F1FF3F 		cmp	r2, #-1
 675 00fc 01D1     		bne	.L55
 295:source\bsw\cdd/jasmin.c ****           parser->toksuper = i;
 676              		.loc 1 295 0 is_stmt 1
 677 00fe B360     		str	r3, [r6, #8]
 296:source\bsw\cdd/jasmin.c ****           break;
 678              		.loc 1 296 0
 679 0100 59E0     		b	.L39
 680              	.L55:
 292:source\bsw\cdd/jasmin.c ****         token = &tokens[i];
 681              		.loc 1 292 0
 682 0102 013B     		subs	r3, r3, #1
 683              	.LVL59:
 684              	.L54:
 292:source\bsw\cdd/jasmin.c ****         token = &tokens[i];
 685              		.loc 1 292 0 is_stmt 0 discriminator 1
 686 0104 002B     		cmp	r3, #0
 687 0106 F0DA     		bge	.L56
 688 0108 55E0     		b	.L39
 689              	.LVL60:
 690              	.L41:
 297:source\bsw\cdd/jasmin.c ****         }
 298:source\bsw\cdd/jasmin.c ****       }
 299:source\bsw\cdd/jasmin.c **** #endif
 300:source\bsw\cdd/jasmin.c ****       break;
 301:source\bsw\cdd/jasmin.c ****     case '\"':
 302:source\bsw\cdd/jasmin.c ****       r = jsmn_parse_string(parser, js, len, tokens, num_tokens);
 691              		.loc 1 302 0 is_stmt 1
 692 010a CDF800A0 		str	r10, [sp]
 693 010e 2B46     		mov	r3, r5
 694 0110 3A46     		mov	r2, r7
 695 0112 4146     		mov	r1, r8
 696 0114 3046     		mov	r0, r6
 697 0116 FFF7FEFF 		bl	jsmn_parse_string
 698              	.LVL61:
 303:source\bsw\cdd/jasmin.c ****       if (r < 0) {
 699              		.loc 1 303 0
 700 011a 0028     		cmp	r0, #0
 701 011c 76DB     		blt	.L46
 304:source\bsw\cdd/jasmin.c ****         return r;
 305:source\bsw\cdd/jasmin.c ****       }
 306:source\bsw\cdd/jasmin.c ****       count++;
 702              		.loc 1 306 0
ARM GAS  C:\Users\zakis\AppData\Local\Temp\ccNO2sok.s 			page 19


 703 011e 09F10109 		add	r9, r9, #1
 704              	.LVL62:
 307:source\bsw\cdd/jasmin.c ****       if (parser->toksuper != -1 && tokens != NULL) {
 705              		.loc 1 307 0
 706 0122 B368     		ldr	r3, [r6, #8]
 707 0124 B3F1FF3F 		cmp	r3, #-1
 708 0128 45D0     		beq	.L39
 709              		.loc 1 307 0 is_stmt 0 discriminator 1
 710 012a 002D     		cmp	r5, #0
 711 012c 43D0     		beq	.L39
 308:source\bsw\cdd/jasmin.c ****         tokens[parser->toksuper].size++;
 712              		.loc 1 308 0 is_stmt 1
 713 012e 05EB0313 		add	r3, r5, r3, lsl #4
 714 0132 DA68     		ldr	r2, [r3, #12]
 715 0134 0132     		adds	r2, r2, #1
 716 0136 DA60     		str	r2, [r3, #12]
 717 0138 3DE0     		b	.L39
 718              	.LVL63:
 719              	.L44:
 309:source\bsw\cdd/jasmin.c ****       }
 310:source\bsw\cdd/jasmin.c ****       break;
 311:source\bsw\cdd/jasmin.c ****     case '\t':
 312:source\bsw\cdd/jasmin.c ****     case '\r':
 313:source\bsw\cdd/jasmin.c ****     case '\n':
 314:source\bsw\cdd/jasmin.c ****     case ' ':
 315:source\bsw\cdd/jasmin.c ****       break;
 316:source\bsw\cdd/jasmin.c ****     case ':':
 317:source\bsw\cdd/jasmin.c ****       parser->toksuper = parser->toknext - 1;
 720              		.loc 1 317 0
 721 013a 7368     		ldr	r3, [r6, #4]
 722 013c 013B     		subs	r3, r3, #1
 723 013e B360     		str	r3, [r6, #8]
 318:source\bsw\cdd/jasmin.c ****       break;
 724              		.loc 1 318 0
 725 0140 39E0     		b	.L39
 726              	.L37:
 319:source\bsw\cdd/jasmin.c ****     case ',':
 320:source\bsw\cdd/jasmin.c ****       if (tokens != NULL && parser->toksuper != -1 &&
 727              		.loc 1 320 0
 728 0142 002D     		cmp	r5, #0
 729 0144 37D0     		beq	.L39
 730              		.loc 1 320 0 is_stmt 0 discriminator 1
 731 0146 B368     		ldr	r3, [r6, #8]
 732 0148 B3F1FF3F 		cmp	r3, #-1
 733 014c 33D0     		beq	.L39
 321:source\bsw\cdd/jasmin.c ****           tokens[parser->toksuper].type != JSMN_ARRAY &&
 734              		.loc 1 321 0 is_stmt 1 discriminator 2
 735 014e 1B01     		lsls	r3, r3, #4
 736 0150 EB5C     		ldrb	r3, [r5, r3]	@ zero_extendqisi2
 320:source\bsw\cdd/jasmin.c ****           tokens[parser->toksuper].type != JSMN_ARRAY &&
 737              		.loc 1 320 0 discriminator 2
 738 0152 022B     		cmp	r3, #2
 739 0154 2FD0     		beq	.L39
 740              		.loc 1 321 0
 741 0156 012B     		cmp	r3, #1
 742 0158 2DD0     		beq	.L39
 322:source\bsw\cdd/jasmin.c ****           tokens[parser->toksuper].type != JSMN_OBJECT) {
ARM GAS  C:\Users\zakis\AppData\Local\Temp\ccNO2sok.s 			page 20


 323:source\bsw\cdd/jasmin.c **** #ifdef JSMN_PARENT_LINKS
 324:source\bsw\cdd/jasmin.c ****         parser->toksuper = tokens[parser->toksuper].parent;
 325:source\bsw\cdd/jasmin.c **** #else
 326:source\bsw\cdd/jasmin.c ****         for (i = parser->toknext - 1; i >= 0; i--) {
 743              		.loc 1 326 0
 744 015a 7268     		ldr	r2, [r6, #4]
 745 015c 013A     		subs	r2, r2, #1
 746              	.LVL64:
 747 015e 11E0     		b	.L57
 748              	.L59:
 327:source\bsw\cdd/jasmin.c ****           if (tokens[i].type == JSMN_ARRAY || tokens[i].type == JSMN_OBJECT) {
 749              		.loc 1 327 0
 750 0160 1301     		lsls	r3, r2, #4
 751 0162 E918     		adds	r1, r5, r3
 752 0164 EB5C     		ldrb	r3, [r5, r3]	@ zero_extendqisi2
 753 0166 013B     		subs	r3, r3, #1
 754 0168 DBB2     		uxtb	r3, r3
 755 016a 012B     		cmp	r3, #1
 756 016c 09D8     		bhi	.L58
 328:source\bsw\cdd/jasmin.c ****             if (tokens[i].start != -1 && tokens[i].end == -1) {
 757              		.loc 1 328 0
 758 016e 4B68     		ldr	r3, [r1, #4]
 759 0170 B3F1FF3F 		cmp	r3, #-1
 760 0174 05D0     		beq	.L58
 761              		.loc 1 328 0 is_stmt 0 discriminator 1
 762 0176 8B68     		ldr	r3, [r1, #8]
 763 0178 B3F1FF3F 		cmp	r3, #-1
 764 017c 01D1     		bne	.L58
 329:source\bsw\cdd/jasmin.c ****               parser->toksuper = i;
 765              		.loc 1 329 0 is_stmt 1
 766 017e B260     		str	r2, [r6, #8]
 330:source\bsw\cdd/jasmin.c ****               break;
 767              		.loc 1 330 0
 768 0180 19E0     		b	.L39
 769              	.L58:
 326:source\bsw\cdd/jasmin.c ****           if (tokens[i].type == JSMN_ARRAY || tokens[i].type == JSMN_OBJECT) {
 770              		.loc 1 326 0 discriminator 2
 771 0182 013A     		subs	r2, r2, #1
 772              	.LVL65:
 773              	.L57:
 326:source\bsw\cdd/jasmin.c ****           if (tokens[i].type == JSMN_ARRAY || tokens[i].type == JSMN_OBJECT) {
 774              		.loc 1 326 0 is_stmt 0 discriminator 1
 775 0184 002A     		cmp	r2, #0
 776 0186 EBDA     		bge	.L59
 777 0188 15E0     		b	.L39
 778              	.LVL66:
 779              	.L36:
 331:source\bsw\cdd/jasmin.c ****             }
 332:source\bsw\cdd/jasmin.c ****           }
 333:source\bsw\cdd/jasmin.c ****         }
 334:source\bsw\cdd/jasmin.c **** #endif
 335:source\bsw\cdd/jasmin.c ****       }
 336:source\bsw\cdd/jasmin.c ****       break;
 337:source\bsw\cdd/jasmin.c **** #ifdef JSMN_STRICT
 338:source\bsw\cdd/jasmin.c ****     /* In strict mode primitives are: numbers and booleans */
 339:source\bsw\cdd/jasmin.c ****     case '-':
 340:source\bsw\cdd/jasmin.c ****     case '0':
ARM GAS  C:\Users\zakis\AppData\Local\Temp\ccNO2sok.s 			page 21


 341:source\bsw\cdd/jasmin.c ****     case '1':
 342:source\bsw\cdd/jasmin.c ****     case '2':
 343:source\bsw\cdd/jasmin.c ****     case '3':
 344:source\bsw\cdd/jasmin.c ****     case '4':
 345:source\bsw\cdd/jasmin.c ****     case '5':
 346:source\bsw\cdd/jasmin.c ****     case '6':
 347:source\bsw\cdd/jasmin.c ****     case '7':
 348:source\bsw\cdd/jasmin.c ****     case '8':
 349:source\bsw\cdd/jasmin.c ****     case '9':
 350:source\bsw\cdd/jasmin.c ****     case 't':
 351:source\bsw\cdd/jasmin.c ****     case 'f':
 352:source\bsw\cdd/jasmin.c ****     case 'n':
 353:source\bsw\cdd/jasmin.c ****       /* And they must not be keys of the object */
 354:source\bsw\cdd/jasmin.c ****       if (tokens != NULL && parser->toksuper != -1) {
 355:source\bsw\cdd/jasmin.c ****         const jsmntok_t *t = &tokens[parser->toksuper];
 356:source\bsw\cdd/jasmin.c ****         if (t->type == JSMN_OBJECT ||
 357:source\bsw\cdd/jasmin.c ****             (t->type == JSMN_STRING && t->size != 0)) {
 358:source\bsw\cdd/jasmin.c ****           return JSMN_ERROR_INVAL;
 359:source\bsw\cdd/jasmin.c ****         }
 360:source\bsw\cdd/jasmin.c ****       }
 361:source\bsw\cdd/jasmin.c **** #else
 362:source\bsw\cdd/jasmin.c ****     /* In non-strict mode every unquoted value is a primitive */
 363:source\bsw\cdd/jasmin.c ****     default:
 364:source\bsw\cdd/jasmin.c **** #endif
 365:source\bsw\cdd/jasmin.c ****       r = jsmn_parse_primitive(parser, js, len, tokens, num_tokens);
 780              		.loc 1 365 0 is_stmt 1
 781 018a CDF800A0 		str	r10, [sp]
 782 018e 2B46     		mov	r3, r5
 783 0190 3A46     		mov	r2, r7
 784 0192 4146     		mov	r1, r8
 785 0194 3046     		mov	r0, r6
 786 0196 FFF7FEFF 		bl	jsmn_parse_primitive
 787              	.LVL67:
 366:source\bsw\cdd/jasmin.c ****       if (r < 0) {
 788              		.loc 1 366 0
 789 019a 0028     		cmp	r0, #0
 790 019c 36DB     		blt	.L46
 367:source\bsw\cdd/jasmin.c ****         return r;
 368:source\bsw\cdd/jasmin.c ****       }
 369:source\bsw\cdd/jasmin.c ****       count++;
 791              		.loc 1 369 0
 792 019e 09F10109 		add	r9, r9, #1
 793              	.LVL68:
 370:source\bsw\cdd/jasmin.c ****       if (parser->toksuper != -1 && tokens != NULL) {
 794              		.loc 1 370 0
 795 01a2 B368     		ldr	r3, [r6, #8]
 796 01a4 B3F1FF3F 		cmp	r3, #-1
 797 01a8 05D0     		beq	.L39
 798              		.loc 1 370 0 is_stmt 0 discriminator 1
 799 01aa 25B1     		cbz	r5, .L39
 371:source\bsw\cdd/jasmin.c ****         tokens[parser->toksuper].size++;
 800              		.loc 1 371 0 is_stmt 1
 801 01ac 05EB0313 		add	r3, r5, r3, lsl #4
 802 01b0 DA68     		ldr	r2, [r3, #12]
 803 01b2 0132     		adds	r2, r2, #1
 804 01b4 DA60     		str	r2, [r3, #12]
 805              	.LVL69:
ARM GAS  C:\Users\zakis\AppData\Local\Temp\ccNO2sok.s 			page 22


 806              	.L39:
 807              	.LBE5:
 215:source\bsw\cdd/jasmin.c ****     char c;
 808              		.loc 1 215 0
 809 01b6 3368     		ldr	r3, [r6]
 810 01b8 0133     		adds	r3, r3, #1
 811 01ba 3360     		str	r3, [r6]
 812              	.L35:
 215:source\bsw\cdd/jasmin.c ****     char c;
 813              		.loc 1 215 0 is_stmt 0 discriminator 1
 814 01bc 3168     		ldr	r1, [r6]
 815 01be B942     		cmp	r1, r7
 816 01c0 04D2     		bcs	.L60
 215:source\bsw\cdd/jasmin.c ****     char c;
 817              		.loc 1 215 0 discriminator 2
 818 01c2 18F80140 		ldrb	r4, [r8, r1]	@ zero_extendqisi2
 819 01c6 002C     		cmp	r4, #0
 820 01c8 7FF426AF 		bne	.L61
 821              	.L60:
 372:source\bsw\cdd/jasmin.c ****       }
 373:source\bsw\cdd/jasmin.c ****       break;
 374:source\bsw\cdd/jasmin.c **** 
 375:source\bsw\cdd/jasmin.c **** #ifdef JSMN_STRICT
 376:source\bsw\cdd/jasmin.c ****     /* Unexpected char in strict mode */
 377:source\bsw\cdd/jasmin.c ****     default:
 378:source\bsw\cdd/jasmin.c ****       return JSMN_ERROR_INVAL;
 379:source\bsw\cdd/jasmin.c **** #endif
 380:source\bsw\cdd/jasmin.c ****     }
 381:source\bsw\cdd/jasmin.c ****   }
 382:source\bsw\cdd/jasmin.c **** 
 383:source\bsw\cdd/jasmin.c ****   if (tokens != NULL) {
 822              		.loc 1 383 0 is_stmt 1
 823 01cc D5B1     		cbz	r5, .L72
 384:source\bsw\cdd/jasmin.c ****     for (i = parser->toknext - 1; i >= 0; i--) {
 824              		.loc 1 384 0
 825 01ce 7368     		ldr	r3, [r6, #4]
 826 01d0 013B     		subs	r3, r3, #1
 827              	.LVL70:
 828 01d2 0AE0     		b	.L62
 829              	.L64:
 385:source\bsw\cdd/jasmin.c ****       /* Unmatched opened object or array */
 386:source\bsw\cdd/jasmin.c ****       if (tokens[i].start != -1 && tokens[i].end == -1) {
 830              		.loc 1 386 0
 831 01d4 05EB0312 		add	r2, r5, r3, lsl #4
 832 01d8 5168     		ldr	r1, [r2, #4]
 833 01da B1F1FF3F 		cmp	r1, #-1
 834 01de 03D0     		beq	.L63
 835              		.loc 1 386 0 is_stmt 0 discriminator 1
 836 01e0 9268     		ldr	r2, [r2, #8]
 837 01e2 B2F1FF3F 		cmp	r2, #-1
 838 01e6 0FD0     		beq	.L73
 839              	.L63:
 384:source\bsw\cdd/jasmin.c ****     for (i = parser->toknext - 1; i >= 0; i--) {
 840              		.loc 1 384 0 is_stmt 1 discriminator 2
 841 01e8 013B     		subs	r3, r3, #1
 842              	.LVL71:
 843              	.L62:
ARM GAS  C:\Users\zakis\AppData\Local\Temp\ccNO2sok.s 			page 23


 384:source\bsw\cdd/jasmin.c ****     for (i = parser->toknext - 1; i >= 0; i--) {
 844              		.loc 1 384 0 is_stmt 0 discriminator 1
 845 01ea 002B     		cmp	r3, #0
 846 01ec F2DA     		bge	.L64
 387:source\bsw\cdd/jasmin.c ****         return JSMN_ERROR_PART;
 388:source\bsw\cdd/jasmin.c ****       }
 389:source\bsw\cdd/jasmin.c ****     }
 390:source\bsw\cdd/jasmin.c ****   }
 391:source\bsw\cdd/jasmin.c **** 
 392:source\bsw\cdd/jasmin.c ****   return count;
 847              		.loc 1 392 0 is_stmt 1
 848 01ee 4846     		mov	r0, r9
 849 01f0 0CE0     		b	.L46
 850              	.LVL72:
 851              	.L65:
 852              	.LBB7:
 229:source\bsw\cdd/jasmin.c ****       }
 853              		.loc 1 229 0
 854 01f2 4FF0FF30 		mov	r0, #-1
 855              	.LVL73:
 856 01f6 09E0     		b	.L46
 857              	.LVL74:
 858              	.L68:
 281:source\bsw\cdd/jasmin.c ****           }
 859              		.loc 1 281 0
 860 01f8 6FF00100 		mvn	r0, #1
 861 01fc 06E0     		b	.L46
 862              	.LVL75:
 863              	.L69:
 290:source\bsw\cdd/jasmin.c ****       }
 864              		.loc 1 290 0
 865 01fe 6FF00100 		mvn	r0, #1
 866 0202 03E0     		b	.L46
 867              	.LVL76:
 868              	.L72:
 869              	.LBE7:
 870              		.loc 1 392 0
 871 0204 4846     		mov	r0, r9
 872 0206 01E0     		b	.L46
 873              	.LVL77:
 874              	.L73:
 387:source\bsw\cdd/jasmin.c ****       }
 875              		.loc 1 387 0
 876 0208 6FF00200 		mvn	r0, #2
 877              	.LVL78:
 878              	.L46:
 393:source\bsw\cdd/jasmin.c **** }
 879              		.loc 1 393 0
 880 020c 02B0     		add	sp, sp, #8
 881              		.cfi_def_cfa_offset 32
 882              		@ sp needed
 883 020e BDE8F087 		pop	{r4, r5, r6, r7, r8, r9, r10, pc}
 884              		.cfi_endproc
 885              	.LFE4:
 886              		.size	jsmn_parse, .-jsmn_parse
 887 0212 00BF     		.section	.text.jsmn_init,"ax",%progbits
 888              		.align	2
ARM GAS  C:\Users\zakis\AppData\Local\Temp\ccNO2sok.s 			page 24


 889              		.global	jsmn_init
 890              		.thumb
 891              		.thumb_func
 892              		.type	jsmn_init, %function
 893              	jsmn_init:
 894              	.LFB5:
 394:source\bsw\cdd/jasmin.c **** /**
 395:source\bsw\cdd/jasmin.c ****  * Creates a new parser based over a given buffer with an array of tokens
 396:source\bsw\cdd/jasmin.c ****  * available.
 397:source\bsw\cdd/jasmin.c ****  */                        
 398:source\bsw\cdd/jasmin.c **** JSMN_API void jsmn_init(jsmn_parser *parser) {
 895              		.loc 1 398 0
 896              		.cfi_startproc
 897              		@ args = 0, pretend = 0, frame = 0
 898              		@ frame_needed = 0, uses_anonymous_args = 0
 899              		@ link register save eliminated.
 900              	.LVL79:
 399:source\bsw\cdd/jasmin.c ****   parser->pos = 0;
 901              		.loc 1 399 0
 902 0000 0023     		movs	r3, #0
 903 0002 0360     		str	r3, [r0]
 400:source\bsw\cdd/jasmin.c ****   parser->toknext = 0;
 904              		.loc 1 400 0
 905 0004 4360     		str	r3, [r0, #4]
 401:source\bsw\cdd/jasmin.c ****   parser->toksuper = -1;
 906              		.loc 1 401 0
 907 0006 4FF0FF33 		mov	r3, #-1
 908 000a 8360     		str	r3, [r0, #8]
 909 000c 7047     		bx	lr
 910              		.cfi_endproc
 911              	.LFE5:
 912              		.size	jsmn_init, .-jsmn_init
 913 000e 00BF     		.text
 914              	.Letext0:
 915              		.file 2 "c:\\program files (x86)\\cypress\\psoc creator\\4.4\\psoc creator\\import\\gnu\\arm\\5.4.
 916              		.file 3 "source\\bsw\\cdd\\jasmin.h"