ARM GAS  C:\Users\zakis\AppData\Local\Temp\ccVei01a.s 			page 1


   1              		.syntax unified
   2              		.cpu cortex-m3
   3              		.fpu softvfp
   4              		.eabi_attribute 20, 1
   5              		.eabi_attribute 21, 1
   6              		.eabi_attribute 23, 3
   7              		.eabi_attribute 24, 1
   8              		.eabi_attribute 25, 1
   9              		.eabi_attribute 26, 1
  10              		.eabi_attribute 30, 1
  11              		.eabi_attribute 34, 1
  12              		.eabi_attribute 18, 4
  13              		.thumb
  14              		.syntax unified
  15              		.file	"ringBufferDrawing.c"
  16              		.text
  17              	.Ltext0:
  18              		.cfi_sections	.debug_frame
  19              		.section	.text.RB_Draw_t_clear,"ax",%progbits
  20              		.align	2
  21              		.global	RB_Draw_t_clear
  22              		.thumb
  23              		.thumb_func
  24              		.type	RB_Draw_t_clear, %function
  25              	RB_Draw_t_clear:
  26              	.LFB2:
  27              		.file 1 "source\\bsw\\cdd\\ringBufferDrawing.c"
   1:source\bsw\cdd/ringBufferDrawing.c **** /**
   2:source\bsw\cdd/ringBufferDrawing.c **** * \file <filename>
   3:source\bsw\cdd/ringBufferDrawing.c **** * \author <author-name>
   4:source\bsw\cdd/ringBufferDrawing.c **** * \date <date>
   5:source\bsw\cdd/ringBufferDrawing.c **** *
   6:source\bsw\cdd/ringBufferDrawing.c **** * \brief <Symbolic File name>
   7:source\bsw\cdd/ringBufferDrawing.c **** *
   8:source\bsw\cdd/ringBufferDrawing.c **** * \copyright Copyright ©2016
   9:source\bsw\cdd/ringBufferDrawing.c **** * Department of electrical engineering and information technology, Hochschule Darmstadt - Universit
  10:source\bsw\cdd/ringBufferDrawing.c **** * Permission to use, copy, modify, and distribute this software and its documentation for education
  11:source\bsw\cdd/ringBufferDrawing.c **** * (unless permitted by h_da) and official h_da projects, is hereby granted for enrolled students of
  12:source\bsw\cdd/ringBufferDrawing.c **** * this paragraph and the following paragraph appear in all copies, modifications, and distributions
  13:source\bsw\cdd/ringBufferDrawing.c **** * Contact Prof.Dr.-Ing. Peter Fromm, peter.fromm@h-da.de, Birkenweg 8 64295 Darmstadt - GERMANY for
  14:source\bsw\cdd/ringBufferDrawing.c **** *
  15:source\bsw\cdd/ringBufferDrawing.c **** * \warning This software is a PROTOTYPE version and is not designed or intended for use in producti
  16:source\bsw\cdd/ringBufferDrawing.c **** * The user represents and warrants that it will NOT use or redistribute the Software for such purpo
  17:source\bsw\cdd/ringBufferDrawing.c **** * This prototype is for research purposes only. This software is provided "AS IS," without a warran
  18:source\bsw\cdd/ringBufferDrawing.c **** */
  19:source\bsw\cdd/ringBufferDrawing.c **** 
  20:source\bsw\cdd/ringBufferDrawing.c **** /*****************************************************************************/
  21:source\bsw\cdd/ringBufferDrawing.c **** /* Include files                                                             */
  22:source\bsw\cdd/ringBufferDrawing.c **** /*****************************************************************************/
  23:source\bsw\cdd/ringBufferDrawing.c **** #include <stdlib.h>
  24:source\bsw\cdd/ringBufferDrawing.c **** #include "ringBufferDrawing.h"
  25:source\bsw\cdd/ringBufferDrawing.c **** 
  26:source\bsw\cdd/ringBufferDrawing.c **** /*****************************************************************************/
  27:source\bsw\cdd/ringBufferDrawing.c **** /* Local pre-processor symbols/macros ('#define')                            */
  28:source\bsw\cdd/ringBufferDrawing.c **** /*****************************************************************************/
  29:source\bsw\cdd/ringBufferDrawing.c **** 
  30:source\bsw\cdd/ringBufferDrawing.c **** /*****************************************************************************/
ARM GAS  C:\Users\zakis\AppData\Local\Temp\ccVei01a.s 			page 2


  31:source\bsw\cdd/ringBufferDrawing.c **** /* Global variable definitions (declared in header file with 'extern')       */
  32:source\bsw\cdd/ringBufferDrawing.c **** /*****************************************************************************/
  33:source\bsw\cdd/ringBufferDrawing.c **** 
  34:source\bsw\cdd/ringBufferDrawing.c **** /*****************************************************************************/
  35:source\bsw\cdd/ringBufferDrawing.c **** /* Local type definitions ('typedef')                                        */
  36:source\bsw\cdd/ringBufferDrawing.c **** /*****************************************************************************/
  37:source\bsw\cdd/ringBufferDrawing.c **** 
  38:source\bsw\cdd/ringBufferDrawing.c **** /*****************************************************************************/
  39:source\bsw\cdd/ringBufferDrawing.c **** /* Local variable definitions ('static')                                     */
  40:source\bsw\cdd/ringBufferDrawing.c **** /*****************************************************************************/
  41:source\bsw\cdd/ringBufferDrawing.c **** 
  42:source\bsw\cdd/ringBufferDrawing.c **** 
  43:source\bsw\cdd/ringBufferDrawing.c **** 
  44:source\bsw\cdd/ringBufferDrawing.c **** /*****************************************************************************/
  45:source\bsw\cdd/ringBufferDrawing.c **** /* Local function prototypes ('static')                                      */
  46:source\bsw\cdd/ringBufferDrawing.c **** /*****************************************************************************/
  47:source\bsw\cdd/ringBufferDrawing.c **** 
  48:source\bsw\cdd/ringBufferDrawing.c **** 
  49:source\bsw\cdd/ringBufferDrawing.c **** /*****************************************************************************/
  50:source\bsw\cdd/ringBufferDrawing.c **** /* Function implementation - global ('extern') and local ('static')          */
  51:source\bsw\cdd/ringBufferDrawing.c **** /*****************************************************************************/
  52:source\bsw\cdd/ringBufferDrawing.c **** 
  53:source\bsw\cdd/ringBufferDrawing.c **** /**
  54:source\bsw\cdd/ringBufferDrawing.c ****  * Initialisation of a ringbuffer
  55:source\bsw\cdd/ringBufferDrawing.c ****  * @param RB_t * const me : IN/OUT - pointer to ringbuffer object 
  56:source\bsw\cdd/ringBufferDrawing.c ****  * @return RC_SUCCESS or error code
  57:source\bsw\cdd/ringBufferDrawing.c ****  */
  58:source\bsw\cdd/ringBufferDrawing.c **** RC_t RB_Draw_t_init(RB_Draw_t * const me)
  59:source\bsw\cdd/ringBufferDrawing.c **** {
  60:source\bsw\cdd/ringBufferDrawing.c ****     return RB_Draw_t_clear(me);
  61:source\bsw\cdd/ringBufferDrawing.c **** }
  62:source\bsw\cdd/ringBufferDrawing.c **** 
  63:source\bsw\cdd/ringBufferDrawing.c **** /**
  64:source\bsw\cdd/ringBufferDrawing.c ****  * Clearing of a ringbuffer
  65:source\bsw\cdd/ringBufferDrawing.c ****  * @param RB_t * const me : IN/OUT - pointer to ringbuffer object 
  66:source\bsw\cdd/ringBufferDrawing.c ****  * @return RC_SUCCESS or error code
  67:source\bsw\cdd/ringBufferDrawing.c ****  */
  68:source\bsw\cdd/ringBufferDrawing.c **** RC_t RB_Draw_t_clear(RB_Draw_t * const me)
  69:source\bsw\cdd/ringBufferDrawing.c **** {
  28              		.loc 1 69 0
  29              		.cfi_startproc
  30              		@ args = 0, pretend = 0, frame = 0
  31              		@ frame_needed = 0, uses_anonymous_args = 0
  32              		@ link register save eliminated.
  33              	.LVL0:
  70:source\bsw\cdd/ringBufferDrawing.c ****     if (0 == me) return RC_ERROR_BAD_PARAM;
  34              		.loc 1 70 0
  35 0000 F0B1     		cbz	r0, .L5
  69:source\bsw\cdd/ringBufferDrawing.c ****     if (0 == me) return RC_ERROR_BAD_PARAM;
  36              		.loc 1 69 0
  37 0002 10B4     		push	{r4}
  38              		.cfi_def_cfa_offset 4
  39              		.cfi_offset 4, -4
  40 0004 0446     		mov	r4, r0
  71:source\bsw\cdd/ringBufferDrawing.c ****     
  72:source\bsw\cdd/ringBufferDrawing.c ****     me->m_fillLevel = 0;
  41              		.loc 1 72 0
ARM GAS  C:\Users\zakis\AppData\Local\Temp\ccVei01a.s 			page 3


  42 0006 0023     		movs	r3, #0
  43 0008 A0F8D43C 		strh	r3, [r0, #3284]	@ movhi
  73:source\bsw\cdd/ringBufferDrawing.c ****     me->m_readIndex = 0;
  44              		.loc 1 73 0
  45 000c A0F8D03C 		strh	r3, [r0, #3280]	@ movhi
  74:source\bsw\cdd/ringBufferDrawing.c ****     me->m_writeIndex = 0;
  46              		.loc 1 74 0
  47 0010 A0F8D23C 		strh	r3, [r0, #3282]	@ movhi
  48              	.LVL1:
  49              	.LBB2:
  75:source\bsw\cdd/ringBufferDrawing.c ****     
  76:source\bsw\cdd/ringBufferDrawing.c ****     for (uint16_t i = 0; i < RB_DRAWING_SIZE; i++)
  50              		.loc 1 76 0
  51 0014 10E0     		b	.L3
  52              	.LVL2:
  53              	.L4:
  77:source\bsw\cdd/ringBufferDrawing.c ****     {
  78:source\bsw\cdd/ringBufferDrawing.c ****         me->m_data[i].color = WHITE;
  54              		.loc 1 78 0 discriminator 3
  55 0016 A420     		movs	r0, #164
  56 0018 00FB03F0 		mul	r0, r0, r3
  57 001c 2218     		adds	r2, r4, r0
  58 001e 4FF6FF71 		movw	r1, #65535
  59 0022 A2F8A010 		strh	r1, [r2, #160]	@ movhi
  79:source\bsw\cdd/ringBufferDrawing.c ****         me->m_data[i].numLines = 0;
  60              		.loc 1 79 0 discriminator 3
  61 0026 0021     		movs	r1, #0
  62 0028 82F8A210 		strb	r1, [r2, #162]
  80:source\bsw\cdd/ringBufferDrawing.c ****         me->m_data[i].lines->coordinates[0] = 0;
  63              		.loc 1 80 0 discriminator 3
  64 002c 2152     		strh	r1, [r4, r0]	@ movhi
  81:source\bsw\cdd/ringBufferDrawing.c ****         me->m_data[i].lines->coordinates[1] = 0;
  65              		.loc 1 81 0 discriminator 3
  66 002e 5180     		strh	r1, [r2, #2]	@ movhi
  82:source\bsw\cdd/ringBufferDrawing.c ****         me->m_data[i].lines->coordinates[2] = 0;
  67              		.loc 1 82 0 discriminator 3
  68 0030 9180     		strh	r1, [r2, #4]	@ movhi
  83:source\bsw\cdd/ringBufferDrawing.c ****         me->m_data[i].lines->coordinates[3] = 0;
  69              		.loc 1 83 0 discriminator 3
  70 0032 D180     		strh	r1, [r2, #6]	@ movhi
  76:source\bsw\cdd/ringBufferDrawing.c ****     {
  71              		.loc 1 76 0 discriminator 3
  72 0034 0133     		adds	r3, r3, #1
  73              	.LVL3:
  74 0036 9BB2     		uxth	r3, r3
  75              	.LVL4:
  76              	.L3:
  76:source\bsw\cdd/ringBufferDrawing.c ****     {
  77              		.loc 1 76 0 is_stmt 0 discriminator 1
  78 0038 132B     		cmp	r3, #19
  79 003a ECD9     		bls	.L4
  80              	.LBE2:
  84:source\bsw\cdd/ringBufferDrawing.c **** 
  85:source\bsw\cdd/ringBufferDrawing.c ****     }
  86:source\bsw\cdd/ringBufferDrawing.c ****     
  87:source\bsw\cdd/ringBufferDrawing.c ****     return RC_SUCCESS;
  81              		.loc 1 87 0 is_stmt 1
ARM GAS  C:\Users\zakis\AppData\Local\Temp\ccVei01a.s 			page 4


  82 003c 0020     		movs	r0, #0
  83              	.LBB3:
  84 003e 02E0     		b	.L2
  85              	.LVL5:
  86              	.L5:
  87              		.cfi_def_cfa_offset 0
  88              		.cfi_restore 4
  89              	.LBE3:
  70:source\bsw\cdd/ringBufferDrawing.c ****     
  90              		.loc 1 70 0
  91 0040 6FF01300 		mvn	r0, #19
  92              	.LVL6:
  93 0044 7047     		bx	lr
  94              	.LVL7:
  95              	.L2:
  96              		.cfi_def_cfa_offset 4
  97              		.cfi_offset 4, -4
  88:source\bsw\cdd/ringBufferDrawing.c **** }
  98              		.loc 1 88 0
  99 0046 10BC     		pop	{r4}
 100              		.cfi_restore 4
 101              		.cfi_def_cfa_offset 0
 102              	.LVL8:
 103 0048 7047     		bx	lr
 104              		.cfi_endproc
 105              	.LFE2:
 106              		.size	RB_Draw_t_clear, .-RB_Draw_t_clear
 107 004a 00BF     		.section	.text.RB_Draw_t_init,"ax",%progbits
 108              		.align	2
 109              		.global	RB_Draw_t_init
 110              		.thumb
 111              		.thumb_func
 112              		.type	RB_Draw_t_init, %function
 113              	RB_Draw_t_init:
 114              	.LFB1:
  59:source\bsw\cdd/ringBufferDrawing.c ****     return RB_Draw_t_clear(me);
 115              		.loc 1 59 0
 116              		.cfi_startproc
 117              		@ args = 0, pretend = 0, frame = 0
 118              		@ frame_needed = 0, uses_anonymous_args = 0
 119              	.LVL9:
 120 0000 08B5     		push	{r3, lr}
 121              		.cfi_def_cfa_offset 8
 122              		.cfi_offset 3, -8
 123              		.cfi_offset 14, -4
  60:source\bsw\cdd/ringBufferDrawing.c **** }
 124              		.loc 1 60 0
 125 0002 FFF7FEFF 		bl	RB_Draw_t_clear
 126              	.LVL10:
  61:source\bsw\cdd/ringBufferDrawing.c **** 
 127              		.loc 1 61 0
 128 0006 08BD     		pop	{r3, pc}
 129              		.cfi_endproc
 130              	.LFE1:
 131              		.size	RB_Draw_t_init, .-RB_Draw_t_init
 132              		.section	.text.RB_Draw_t_write,"ax",%progbits
 133              		.align	2
ARM GAS  C:\Users\zakis\AppData\Local\Temp\ccVei01a.s 			page 5


 134              		.global	RB_Draw_t_write
 135              		.thumb
 136              		.thumb_func
 137              		.type	RB_Draw_t_write, %function
 138              	RB_Draw_t_write:
 139              	.LFB3:
  89:source\bsw\cdd/ringBufferDrawing.c ****     
  90:source\bsw\cdd/ringBufferDrawing.c **** 
  91:source\bsw\cdd/ringBufferDrawing.c **** /**
  92:source\bsw\cdd/ringBufferDrawing.c ****  * Write one element to the ringbuffer
  93:source\bsw\cdd/ringBufferDrawing.c ****  * @param RB_t * const me : IN/OUT - pointer to ringbuffer object 
  94:source\bsw\cdd/ringBufferDrawing.c ****  * @param RB_data_t const * const data : IN - Data to be written
  95:source\bsw\cdd/ringBufferDrawing.c ****  * @return RC_SUCCESS or error code
  96:source\bsw\cdd/ringBufferDrawing.c ****  */
  97:source\bsw\cdd/ringBufferDrawing.c **** RC_t RB_Draw_t_write(RB_Draw_t * const me, RB_Draw_data_t const * const data)
  98:source\bsw\cdd/ringBufferDrawing.c **** {
 140              		.loc 1 98 0
 141              		.cfi_startproc
 142              		@ args = 0, pretend = 0, frame = 0
 143              		@ frame_needed = 0, uses_anonymous_args = 0
 144              	.LVL11:
 145 0000 70B5     		push	{r4, r5, r6, lr}
 146              		.cfi_def_cfa_offset 16
 147              		.cfi_offset 4, -16
 148              		.cfi_offset 5, -12
 149              		.cfi_offset 6, -8
 150              		.cfi_offset 14, -4
  99:source\bsw\cdd/ringBufferDrawing.c ****     if (me->m_fillLevel < RB_DRAWING_SIZE)
 151              		.loc 1 99 0
 152 0002 B0F8D46C 		ldrh	r6, [r0, #3284]
 153 0006 132E     		cmp	r6, #19
 154 0008 1BD8     		bhi	.L12
 155 000a 0446     		mov	r4, r0
 100:source\bsw\cdd/ringBufferDrawing.c ****     {
 101:source\bsw\cdd/ringBufferDrawing.c ****         me->m_data[me->m_writeIndex++] = *data;
 156              		.loc 1 101 0
 157 000c B0F8D23C 		ldrh	r3, [r0, #3282]
 158 0010 5D1C     		adds	r5, r3, #1
 159 0012 ADB2     		uxth	r5, r5
 160 0014 A0F8D25C 		strh	r5, [r0, #3282]	@ movhi
 161 0018 A420     		movs	r0, #164
 162              	.LVL12:
 163 001a 0246     		mov	r2, r0
 164 001c 00FB0340 		mla	r0, r0, r3, r4
 165 0020 FFF7FEFF 		bl	memcpy
 166              	.LVL13:
 102:source\bsw\cdd/ringBufferDrawing.c ****         
 103:source\bsw\cdd/ringBufferDrawing.c ****         me->m_writeIndex %= RB_DRAWING_SIZE;
 167              		.loc 1 103 0
 168 0024 084B     		ldr	r3, .L14
 169 0026 A3FB0523 		umull	r2, r3, r3, r5
 170 002a 1B09     		lsrs	r3, r3, #4
 171 002c 03EB8303 		add	r3, r3, r3, lsl #2
 172 0030 9A00     		lsls	r2, r3, #2
 173 0032 AD1A     		subs	r5, r5, r2
 174 0034 A4F8D25C 		strh	r5, [r4, #3282]	@ movhi
 104:source\bsw\cdd/ringBufferDrawing.c ****         me->m_fillLevel++;
ARM GAS  C:\Users\zakis\AppData\Local\Temp\ccVei01a.s 			page 6


 175              		.loc 1 104 0
 176 0038 0136     		adds	r6, r6, #1
 177 003a A4F8D46C 		strh	r6, [r4, #3284]	@ movhi
 105:source\bsw\cdd/ringBufferDrawing.c ****         
 106:source\bsw\cdd/ringBufferDrawing.c ****         return RC_SUCCESS;
 178              		.loc 1 106 0
 179 003e 0020     		movs	r0, #0
 180 0040 70BD     		pop	{r4, r5, r6, pc}
 181              	.LVL14:
 182              	.L12:
 107:source\bsw\cdd/ringBufferDrawing.c ****     }
 108:source\bsw\cdd/ringBufferDrawing.c ****     else
 109:source\bsw\cdd/ringBufferDrawing.c ****     {
 110:source\bsw\cdd/ringBufferDrawing.c ****         return RC_ERROR_BUFFER_FULL;
 183              		.loc 1 110 0
 184 0042 6FF00700 		mvn	r0, #7
 185              	.LVL15:
 111:source\bsw\cdd/ringBufferDrawing.c ****     }
 112:source\bsw\cdd/ringBufferDrawing.c **** }
 186              		.loc 1 112 0
 187 0046 70BD     		pop	{r4, r5, r6, pc}
 188              	.L15:
 189              		.align	2
 190              	.L14:
 191 0048 CDCCCCCC 		.word	-858993459
 192              		.cfi_endproc
 193              	.LFE3:
 194              		.size	RB_Draw_t_write, .-RB_Draw_t_write
 195              		.section	.text.RB_Draw_t_read,"ax",%progbits
 196              		.align	2
 197              		.global	RB_Draw_t_read
 198              		.thumb
 199              		.thumb_func
 200              		.type	RB_Draw_t_read, %function
 201              	RB_Draw_t_read:
 202              	.LFB4:
 113:source\bsw\cdd/ringBufferDrawing.c **** 
 114:source\bsw\cdd/ringBufferDrawing.c **** /**
 115:source\bsw\cdd/ringBufferDrawing.c ****  * Read one element from the ringbuffer
 116:source\bsw\cdd/ringBufferDrawing.c ****  * @param RB_t * const me : IN/OUT - pointer to ringbuffer object 
 117:source\bsw\cdd/ringBufferDrawing.c ****  * @param RB_data_t * const data : OUT - Data read
 118:source\bsw\cdd/ringBufferDrawing.c ****  * @return RC_SUCCESS or error code
 119:source\bsw\cdd/ringBufferDrawing.c ****  */
 120:source\bsw\cdd/ringBufferDrawing.c **** RC_t RB_Draw_t_read(RB_Draw_t * const me, RB_Draw_data_t * const data)
 121:source\bsw\cdd/ringBufferDrawing.c **** {
 203              		.loc 1 121 0
 204              		.cfi_startproc
 205              		@ args = 0, pretend = 0, frame = 0
 206              		@ frame_needed = 0, uses_anonymous_args = 0
 207              	.LVL16:
 122:source\bsw\cdd/ringBufferDrawing.c ****     if (me->m_fillLevel > 0)
 208              		.loc 1 122 0
 209 0000 B0F8D43C 		ldrh	r3, [r0, #3284]
 210 0004 0BB3     		cbz	r3, .L18
 121:source\bsw\cdd/ringBufferDrawing.c ****     if (me->m_fillLevel > 0)
 211              		.loc 1 121 0
 212 0006 10B5     		push	{r4, lr}
ARM GAS  C:\Users\zakis\AppData\Local\Temp\ccVei01a.s 			page 7


 213              		.cfi_def_cfa_offset 8
 214              		.cfi_offset 4, -8
 215              		.cfi_offset 14, -4
 216 0008 0B46     		mov	r3, r1
 217 000a 0446     		mov	r4, r0
 123:source\bsw\cdd/ringBufferDrawing.c ****     {
 124:source\bsw\cdd/ringBufferDrawing.c ****         *data = me->m_data[me->m_readIndex++];
 218              		.loc 1 124 0
 219 000c B0F8D01C 		ldrh	r1, [r0, #3280]
 220              	.LVL17:
 221 0010 4A1C     		adds	r2, r1, #1
 222 0012 A0F8D02C 		strh	r2, [r0, #3280]	@ movhi
 223 0016 A420     		movs	r0, #164
 224              	.LVL18:
 225 0018 0246     		mov	r2, r0
 226 001a 00FB0141 		mla	r1, r0, r1, r4
 227 001e 1846     		mov	r0, r3
 228 0020 FFF7FEFF 		bl	memcpy
 229              	.LVL19:
 125:source\bsw\cdd/ringBufferDrawing.c ****         
 126:source\bsw\cdd/ringBufferDrawing.c ****         me->m_readIndex %= RB_DRAWING_SIZE;
 230              		.loc 1 126 0
 231 0024 B4F8D02C 		ldrh	r2, [r4, #3280]
 232 0028 094B     		ldr	r3, .L21
 233 002a A3FB0213 		umull	r1, r3, r3, r2
 234 002e 1B09     		lsrs	r3, r3, #4
 235 0030 03EB8303 		add	r3, r3, r3, lsl #2
 236 0034 9900     		lsls	r1, r3, #2
 237 0036 521A     		subs	r2, r2, r1
 238 0038 A4F8D02C 		strh	r2, [r4, #3280]	@ movhi
 127:source\bsw\cdd/ringBufferDrawing.c ****         me->m_fillLevel--;
 239              		.loc 1 127 0
 240 003c B4F8D43C 		ldrh	r3, [r4, #3284]
 241 0040 013B     		subs	r3, r3, #1
 242 0042 A4F8D43C 		strh	r3, [r4, #3284]	@ movhi
 128:source\bsw\cdd/ringBufferDrawing.c ****         
 129:source\bsw\cdd/ringBufferDrawing.c ****         return RC_SUCCESS;
 243              		.loc 1 129 0
 244 0046 0020     		movs	r0, #0
 245 0048 10BD     		pop	{r4, pc}
 246              	.LVL20:
 247              	.L18:
 248              		.cfi_def_cfa_offset 0
 249              		.cfi_restore 4
 250              		.cfi_restore 14
 130:source\bsw\cdd/ringBufferDrawing.c ****     }
 131:source\bsw\cdd/ringBufferDrawing.c ****     else
 132:source\bsw\cdd/ringBufferDrawing.c ****     {
 133:source\bsw\cdd/ringBufferDrawing.c ****         return RC_ERROR_BUFFER_EMTPY;
 251              		.loc 1 133 0
 252 004a 6FF00800 		mvn	r0, #8
 253              	.LVL21:
 254 004e 7047     		bx	lr
 255              	.L22:
 256              		.align	2
 257              	.L21:
 258 0050 CDCCCCCC 		.word	-858993459
ARM GAS  C:\Users\zakis\AppData\Local\Temp\ccVei01a.s 			page 8


 259              		.cfi_endproc
 260              	.LFE4:
 261              		.size	RB_Draw_t_read, .-RB_Draw_t_read
 262              		.section	.text.RB_Draw_t_getCapacity,"ax",%progbits
 263              		.align	2
 264              		.global	RB_Draw_t_getCapacity
 265              		.thumb
 266              		.thumb_func
 267              		.type	RB_Draw_t_getCapacity, %function
 268              	RB_Draw_t_getCapacity:
 269              	.LFB5:
 134:source\bsw\cdd/ringBufferDrawing.c ****     }
 135:source\bsw\cdd/ringBufferDrawing.c **** }
 136:source\bsw\cdd/ringBufferDrawing.c **** 
 137:source\bsw\cdd/ringBufferDrawing.c **** /**
 138:source\bsw\cdd/ringBufferDrawing.c ****  * Provide available space in buffer
 139:source\bsw\cdd/ringBufferDrawing.c ****  * @param RB_t * const me : IN/OUT - pointer to ringbuffer object 
 140:source\bsw\cdd/ringBufferDrawing.c ****  * @return Available number of elements to be stored
 141:source\bsw\cdd/ringBufferDrawing.c ****  */
 142:source\bsw\cdd/ringBufferDrawing.c **** uint16_t RB_Draw_t_getCapacity(RB_Draw_t * const me)
 143:source\bsw\cdd/ringBufferDrawing.c **** {
 270              		.loc 1 143 0
 271              		.cfi_startproc
 272              		@ args = 0, pretend = 0, frame = 0
 273              		@ frame_needed = 0, uses_anonymous_args = 0
 274              		@ link register save eliminated.
 275              	.LVL22:
 144:source\bsw\cdd/ringBufferDrawing.c ****     //Todo: No  error handling considered, assume all other functions work as intended
 145:source\bsw\cdd/ringBufferDrawing.c ****     return RB_DRAWING_SIZE - me->m_fillLevel;
 276              		.loc 1 145 0
 277 0000 B0F8D40C 		ldrh	r0, [r0, #3284]
 278              	.LVL23:
 279 0004 C0F11400 		rsb	r0, r0, #20
 146:source\bsw\cdd/ringBufferDrawing.c **** }
 280              		.loc 1 146 0
 281 0008 80B2     		uxth	r0, r0
 282 000a 7047     		bx	lr
 283              		.cfi_endproc
 284              	.LFE5:
 285              		.size	RB_Draw_t_getCapacity, .-RB_Draw_t_getCapacity
 286              		.section	.text.RB_Draw_t_getNumberOfStoredElements,"ax",%progbits
 287              		.align	2
 288              		.global	RB_Draw_t_getNumberOfStoredElements
 289              		.thumb
 290              		.thumb_func
 291              		.type	RB_Draw_t_getNumberOfStoredElements, %function
 292              	RB_Draw_t_getNumberOfStoredElements:
 293              	.LFB6:
 147:source\bsw\cdd/ringBufferDrawing.c **** 
 148:source\bsw\cdd/ringBufferDrawing.c **** /**
 149:source\bsw\cdd/ringBufferDrawing.c ****  * Check how much data is stored
 150:source\bsw\cdd/ringBufferDrawing.c ****  * @param RB_t * const me : IN/OUT - pointer to ringbuffer object 
 151:source\bsw\cdd/ringBufferDrawing.c ****  * @return number of byte stored
 152:source\bsw\cdd/ringBufferDrawing.c ****  */
 153:source\bsw\cdd/ringBufferDrawing.c **** uint16_t RB_Draw_t_getNumberOfStoredElements(RB_Draw_t * const me)
 154:source\bsw\cdd/ringBufferDrawing.c **** {
 294              		.loc 1 154 0
ARM GAS  C:\Users\zakis\AppData\Local\Temp\ccVei01a.s 			page 9


 295              		.cfi_startproc
 296              		@ args = 0, pretend = 0, frame = 0
 297              		@ frame_needed = 0, uses_anonymous_args = 0
 298              		@ link register save eliminated.
 299              	.LVL24:
 155:source\bsw\cdd/ringBufferDrawing.c ****     return me->m_fillLevel;
 156:source\bsw\cdd/ringBufferDrawing.c **** }
 300              		.loc 1 156 0
 301 0000 B0F8D40C 		ldrh	r0, [r0, #3284]
 302              	.LVL25:
 303 0004 7047     		bx	lr
 304              		.cfi_endproc
 305              	.LFE6:
 306              		.size	RB_Draw_t_getNumberOfStoredElements, .-RB_Draw_t_getNumberOfStoredElements
 307 0006 00BF     		.text
 308              	.Letext0:
 309              		.file 2 ".\\source\\bsw/global.h"
 310              		.file 3 ".\\source\\bsw\\cdd\\tft/tft.h"
 311              		.file 4 "source\\bsw\\cdd\\ringBufferDrawing.h"