ARM GAS  C:\Users\zakis\AppData\Local\Temp\ccRC1vp1.s 			page 1


   1              		.syntax unified
   2              		.cpu cortex-m3
   3              		.fpu softvfp
   4              		.eabi_attribute 20, 1
   5              		.eabi_attribute 21, 1
   6              		.eabi_attribute 23, 3
   7              		.eabi_attribute 24, 1
   8              		.eabi_attribute 25, 1
   9              		.eabi_attribute 26, 1
  10              		.eabi_attribute 30, 1
  11              		.eabi_attribute 34, 1
  12              		.eabi_attribute 18, 4
  13              		.thumb
  14              		.syntax unified
  15              		.file	"main.c"
  16              		.text
  17              	.Ltext0:
  18              		.cfi_sections	.debug_frame
  19              		.section	.text.ISR2_systick_handler,"ax",%progbits
  20              		.align	2
  21              		.global	ISR2_systick_handler
  22              		.thumb
  23              		.thumb_func
  24              		.type	ISR2_systick_handler, %function
  25              	ISR2_systick_handler:
  26              	.LFB112:
  27              		.file 1 "source\\asw\\main.c"
   1:source\asw/main.c **** /* ========================================
   2:source\asw/main.c ****  *
   3:source\asw/main.c ****  * Copyright YOUR COMPANY, THE YEAR
   4:source\asw/main.c ****  * All Rights Reserved
   5:source\asw/main.c ****  * UNPUBLISHED, LICENSED SOFTWARE.
   6:source\asw/main.c ****  *
   7:source\asw/main.c ****  * CONFIDENTIAL AND PROPRIETARY INFORMATION
   8:source\asw/main.c ****  * WHICH IS THE PROPERTY OF your company.
   9:source\asw/main.c ****  *
  10:source\asw/main.c ****  * ========================================
  11:source\asw/main.c **** */
  12:source\asw/main.c **** #include "global.h"
  13:source\asw/main.c **** #include "project.h"
  14:source\asw/main.c **** #include "cfg.h"
  15:source\asw/main.c **** #include "uart.h"
  16:source\asw/main.c **** #include "events.h"
  17:source\asw/main.c **** #include "parser.h"
  18:source\asw/main.c **** #include "drawer.h"
  19:source\asw/main.c **** 
  20:source\asw/main.c **** UART_t UART_port;
  21:source\asw/main.c **** EVENT_t parsingEventHandler;
  22:source\asw/main.c **** EVENT_t drawingEventHandler;
  23:source\asw/main.c **** PARSER_t jsonParser;
  24:source\asw/main.c **** DRAWER_t drawer;
  25:source\asw/main.c **** 
  26:source\asw/main.c **** /********************************************************************************
  27:source\asw/main.c ****  * Systick
  28:source\asw/main.c ****  ********************************************************************************/
  29:source\asw/main.c **** 
  30:source\asw/main.c **** /*
ARM GAS  C:\Users\zakis\AppData\Local\Temp\ccRC1vp1.s 			page 2


  31:source\asw/main.c **** * ISR which will increment the systick counter every ms
  32:source\asw/main.c **** */
  33:source\asw/main.c **** ISR(systick_handler)
  34:source\asw/main.c **** {
  28              		.loc 1 34 0
  29              		.cfi_startproc
  30              		@ args = 0, pretend = 0, frame = 0
  31              		@ frame_needed = 0, uses_anonymous_args = 0
  32 0000 08B5     		push	{r3, lr}
  33              		.cfi_def_cfa_offset 8
  34              		.cfi_offset 3, -8
  35              		.cfi_offset 14, -4
  35:source\asw/main.c ****     CounterTick(cnt_systick);
  36              		.loc 1 35 0
  37 0002 0020     		movs	r0, #0
  38 0004 FFF7FEFF 		bl	EE_oo_IncrementCounter
  39              	.LVL0:
  40 0008 08BD     		pop	{r3, pc}
  41              		.cfi_endproc
  42              	.LFE112:
  43              		.size	ISR2_systick_handler, .-ISR2_systick_handler
  44 000a 00BF     		.section	.text.systick_handler,"ax",%progbits
  45              		.align	2
  46              		.global	systick_handler
  47              		.thumb
  48              		.thumb_func
  49              		.type	systick_handler, %function
  50              	systick_handler:
  51              	.LFB111:
  33:source\asw/main.c **** {
  52              		.loc 1 33 0
  53              		.cfi_startproc
  54              		@ Stack Align: May be called with mis-aligned SP.
  55              		@ args = 0, pretend = 0, frame = 0
  56              		@ frame_needed = 0, uses_anonymous_args = 0
  57 0000 6846     		mov	r0, sp
  58              		.cfi_register 13, 0
  59 0002 20F00701 		bic	r1, r0, #7
  60 0006 8D46     		mov	sp, r1
  61 0008 19B5     		push	{r0, r3, r4, lr}
  62              		.cfi_def_cfa_offset 16
  63              		.cfi_offset 13, -16
  64              		.cfi_offset 3, -12
  65              		.cfi_offset 4, -8
  66              		.cfi_offset 14, -4
  67              	.LVL1:
  68              	.LBB80:
  69              	.LBB81:
  70              		.file 2 "Generated_Source\\PSoC5/ErikaOS_cortex_mx_ee_cpu.inc"
   1:Generated_Source\PSoC5/ErikaOS_cortex_mx_ee_cpu.inc **** /* ###*B*###
   2:Generated_Source\PSoC5/ErikaOS_cortex_mx_ee_cpu.inc ****  * ERIKA Enterprise - a tiny RTOS for small microcontrollers
   3:Generated_Source\PSoC5/ErikaOS_cortex_mx_ee_cpu.inc ****  *
   4:Generated_Source\PSoC5/ErikaOS_cortex_mx_ee_cpu.inc ****  * Copyright (C) 2002-2011  Evidence Srl
   5:Generated_Source\PSoC5/ErikaOS_cortex_mx_ee_cpu.inc ****  *
   6:Generated_Source\PSoC5/ErikaOS_cortex_mx_ee_cpu.inc ****  * This file is part of ERIKA Enterprise.
   7:Generated_Source\PSoC5/ErikaOS_cortex_mx_ee_cpu.inc ****  *
   8:Generated_Source\PSoC5/ErikaOS_cortex_mx_ee_cpu.inc ****  * ERIKA Enterprise is free software; you can redistribute it
ARM GAS  C:\Users\zakis\AppData\Local\Temp\ccRC1vp1.s 			page 3


   9:Generated_Source\PSoC5/ErikaOS_cortex_mx_ee_cpu.inc ****  * and/or modify it under the terms of the GNU General Public License
  10:Generated_Source\PSoC5/ErikaOS_cortex_mx_ee_cpu.inc ****  * version 2 as published by the Free Software Foundation, 
  11:Generated_Source\PSoC5/ErikaOS_cortex_mx_ee_cpu.inc ****  * (with a special exception described below).
  12:Generated_Source\PSoC5/ErikaOS_cortex_mx_ee_cpu.inc ****  *
  13:Generated_Source\PSoC5/ErikaOS_cortex_mx_ee_cpu.inc ****  * Linking this code statically or dynamically with other modules is
  14:Generated_Source\PSoC5/ErikaOS_cortex_mx_ee_cpu.inc ****  * making a combined work based on this code.  Thus, the terms and
  15:Generated_Source\PSoC5/ErikaOS_cortex_mx_ee_cpu.inc ****  * conditions of the GNU General Public License cover the whole
  16:Generated_Source\PSoC5/ErikaOS_cortex_mx_ee_cpu.inc ****  * combination.
  17:Generated_Source\PSoC5/ErikaOS_cortex_mx_ee_cpu.inc ****  *
  18:Generated_Source\PSoC5/ErikaOS_cortex_mx_ee_cpu.inc ****  * As a special exception, the copyright holders of this library give you
  19:Generated_Source\PSoC5/ErikaOS_cortex_mx_ee_cpu.inc ****  * permission to link this code with independent modules to produce an
  20:Generated_Source\PSoC5/ErikaOS_cortex_mx_ee_cpu.inc ****  * executable, regardless of the license terms of these independent
  21:Generated_Source\PSoC5/ErikaOS_cortex_mx_ee_cpu.inc ****  * modules, and to copy and distribute the resulting executable under
  22:Generated_Source\PSoC5/ErikaOS_cortex_mx_ee_cpu.inc ****  * terms of your choice, provided that you also meet, for each linked
  23:Generated_Source\PSoC5/ErikaOS_cortex_mx_ee_cpu.inc ****  * independent module, the terms and conditions of the license of that
  24:Generated_Source\PSoC5/ErikaOS_cortex_mx_ee_cpu.inc ****  * module.  An independent module is a module which is not derived from
  25:Generated_Source\PSoC5/ErikaOS_cortex_mx_ee_cpu.inc ****  * or based on this library.  If you modify this code, you may extend
  26:Generated_Source\PSoC5/ErikaOS_cortex_mx_ee_cpu.inc ****  * this exception to your version of the code, but you are not
  27:Generated_Source\PSoC5/ErikaOS_cortex_mx_ee_cpu.inc ****  * obligated to do so.  If you do not wish to do so, delete this
  28:Generated_Source\PSoC5/ErikaOS_cortex_mx_ee_cpu.inc ****  * exception statement from your version.
  29:Generated_Source\PSoC5/ErikaOS_cortex_mx_ee_cpu.inc ****  *
  30:Generated_Source\PSoC5/ErikaOS_cortex_mx_ee_cpu.inc ****  * ERIKA Enterprise is distributed in the hope that it will be
  31:Generated_Source\PSoC5/ErikaOS_cortex_mx_ee_cpu.inc ****  * useful, but WITHOUT ANY WARRANTY; without even the implied warranty
  32:Generated_Source\PSoC5/ErikaOS_cortex_mx_ee_cpu.inc ****  * of MERCHANTABILITY or FITNESS FOR A PARTICULAR PURPOSE.  See the
  33:Generated_Source\PSoC5/ErikaOS_cortex_mx_ee_cpu.inc ****  * GNU General Public License version 2 for more details.
  34:Generated_Source\PSoC5/ErikaOS_cortex_mx_ee_cpu.inc ****  *
  35:Generated_Source\PSoC5/ErikaOS_cortex_mx_ee_cpu.inc ****  * You should have received a copy of the GNU General Public License
  36:Generated_Source\PSoC5/ErikaOS_cortex_mx_ee_cpu.inc ****  * version 2 along with ERIKA Enterprise; if not, write to the
  37:Generated_Source\PSoC5/ErikaOS_cortex_mx_ee_cpu.inc ****  * Free Software Foundation, Inc., 51 Franklin Street, Fifth Floor,
  38:Generated_Source\PSoC5/ErikaOS_cortex_mx_ee_cpu.inc ****  * Boston, MA 02110-1301 USA.
  39:Generated_Source\PSoC5/ErikaOS_cortex_mx_ee_cpu.inc ****  * ###*E*### */
  40:Generated_Source\PSoC5/ErikaOS_cortex_mx_ee_cpu.inc **** 
  41:Generated_Source\PSoC5/ErikaOS_cortex_mx_ee_cpu.inc **** /** 
  42:Generated_Source\PSoC5/ErikaOS_cortex_mx_ee_cpu.inc **** 	@file ee_cpu.h
  43:Generated_Source\PSoC5/ErikaOS_cortex_mx_ee_cpu.inc **** 	@brief CPU-dependent part of HAL. Derived from pkg/cpu/pic30/inc/ee_cpu.h
  44:Generated_Source\PSoC5/ErikaOS_cortex_mx_ee_cpu.inc **** 	@author Gianluca Franchino
  45:Generated_Source\PSoC5/ErikaOS_cortex_mx_ee_cpu.inc **** 	@author Giuseppe Serano
  46:Generated_Source\PSoC5/ErikaOS_cortex_mx_ee_cpu.inc **** 	@date 2011
  47:Generated_Source\PSoC5/ErikaOS_cortex_mx_ee_cpu.inc **** */ 
  48:Generated_Source\PSoC5/ErikaOS_cortex_mx_ee_cpu.inc ****     
  49:Generated_Source\PSoC5/ErikaOS_cortex_mx_ee_cpu.inc **** /*
  50:Generated_Source\PSoC5/ErikaOS_cortex_mx_ee_cpu.inc ****  * PSoC Port and API Generation
  51:Generated_Source\PSoC5/ErikaOS_cortex_mx_ee_cpu.inc ****  * Carlos Fernando Meier Martinez
  52:Generated_Source\PSoC5/ErikaOS_cortex_mx_ee_cpu.inc ****  * Hochschule Darmstadt, Germany. 2017.
  53:Generated_Source\PSoC5/ErikaOS_cortex_mx_ee_cpu.inc ****  */
  54:Generated_Source\PSoC5/ErikaOS_cortex_mx_ee_cpu.inc **** 
  55:Generated_Source\PSoC5/ErikaOS_cortex_mx_ee_cpu.inc **** #ifndef __INCLUDE_CORTEX_MX_EE_CPU_H__
  56:Generated_Source\PSoC5/ErikaOS_cortex_mx_ee_cpu.inc **** #define __INCLUDE_CORTEX_MX_EE_CPU_H__
  57:Generated_Source\PSoC5/ErikaOS_cortex_mx_ee_cpu.inc **** 
  58:Generated_Source\PSoC5/ErikaOS_cortex_mx_ee_cpu.inc **** #include "ErikaOS_eecfg.inc"
  59:Generated_Source\PSoC5/ErikaOS_cortex_mx_ee_cpu.inc **** 
  60:Generated_Source\PSoC5/ErikaOS_cortex_mx_ee_cpu.inc **** 
  61:Generated_Source\PSoC5/ErikaOS_cortex_mx_ee_cpu.inc **** #ifdef __GNU__
  62:Generated_Source\PSoC5/ErikaOS_cortex_mx_ee_cpu.inc **** #include "ErikaOS_common_ee_compiler_gcc.inc"
  63:Generated_Source\PSoC5/ErikaOS_cortex_mx_ee_cpu.inc **** #endif
  64:Generated_Source\PSoC5/ErikaOS_cortex_mx_ee_cpu.inc **** 
  65:Generated_Source\PSoC5/ErikaOS_cortex_mx_ee_cpu.inc **** /* Initial stack offset (in words): Used in multistack. */
ARM GAS  C:\Users\zakis\AppData\Local\Temp\ccRC1vp1.s 			page 4


  66:Generated_Source\PSoC5/ErikaOS_cortex_mx_ee_cpu.inc **** #ifndef CORTEX_MX_INIT_TOS_OFFSET
  67:Generated_Source\PSoC5/ErikaOS_cortex_mx_ee_cpu.inc **** #define CORTEX_MX_INIT_TOS_OFFSET 10
  68:Generated_Source\PSoC5/ErikaOS_cortex_mx_ee_cpu.inc **** #endif
  69:Generated_Source\PSoC5/ErikaOS_cortex_mx_ee_cpu.inc **** 
  70:Generated_Source\PSoC5/ErikaOS_cortex_mx_ee_cpu.inc **** /*************************************************************************
  71:Generated_Source\PSoC5/ErikaOS_cortex_mx_ee_cpu.inc ****  HAL Types and structures
  72:Generated_Source\PSoC5/ErikaOS_cortex_mx_ee_cpu.inc ****  *************************************************************************/
  73:Generated_Source\PSoC5/ErikaOS_cortex_mx_ee_cpu.inc **** 
  74:Generated_Source\PSoC5/ErikaOS_cortex_mx_ee_cpu.inc **** /* Primitive data types */
  75:Generated_Source\PSoC5/ErikaOS_cortex_mx_ee_cpu.inc **** #include "ErikaOS_common_ee_types.inc"
  76:Generated_Source\PSoC5/ErikaOS_cortex_mx_ee_cpu.inc **** 
  77:Generated_Source\PSoC5/ErikaOS_cortex_mx_ee_cpu.inc **** typedef EE_UINT32 EE_UREG;
  78:Generated_Source\PSoC5/ErikaOS_cortex_mx_ee_cpu.inc **** typedef EE_INT32  EE_SREG;
  79:Generated_Source\PSoC5/ErikaOS_cortex_mx_ee_cpu.inc **** typedef EE_UINT32 EE_FREG;
  80:Generated_Source\PSoC5/ErikaOS_cortex_mx_ee_cpu.inc **** #define EE_UREG_SIZE 4
  81:Generated_Source\PSoC5/ErikaOS_cortex_mx_ee_cpu.inc **** 
  82:Generated_Source\PSoC5/ErikaOS_cortex_mx_ee_cpu.inc **** /* boolean type */
  83:Generated_Source\PSoC5/ErikaOS_cortex_mx_ee_cpu.inc **** #ifndef EE_TYPEBOOL
  84:Generated_Source\PSoC5/ErikaOS_cortex_mx_ee_cpu.inc **** typedef EE_UREG EE_TYPEBOOL;
  85:Generated_Source\PSoC5/ErikaOS_cortex_mx_ee_cpu.inc **** #endif
  86:Generated_Source\PSoC5/ErikaOS_cortex_mx_ee_cpu.inc **** 
  87:Generated_Source\PSoC5/ErikaOS_cortex_mx_ee_cpu.inc **** /* boolean true define */
  88:Generated_Source\PSoC5/ErikaOS_cortex_mx_ee_cpu.inc **** #ifndef EE_TRUE
  89:Generated_Source\PSoC5/ErikaOS_cortex_mx_ee_cpu.inc **** #define EE_TRUE ((EE_TYPEBOOL)1U)
  90:Generated_Source\PSoC5/ErikaOS_cortex_mx_ee_cpu.inc **** #endif
  91:Generated_Source\PSoC5/ErikaOS_cortex_mx_ee_cpu.inc **** 
  92:Generated_Source\PSoC5/ErikaOS_cortex_mx_ee_cpu.inc **** /* boolean false define */
  93:Generated_Source\PSoC5/ErikaOS_cortex_mx_ee_cpu.inc **** #ifndef EE_FALSE
  94:Generated_Source\PSoC5/ErikaOS_cortex_mx_ee_cpu.inc **** #define EE_FALSE ((EE_TYPEBOOL)0U)
  95:Generated_Source\PSoC5/ErikaOS_cortex_mx_ee_cpu.inc **** #endif
  96:Generated_Source\PSoC5/ErikaOS_cortex_mx_ee_cpu.inc **** 
  97:Generated_Source\PSoC5/ErikaOS_cortex_mx_ee_cpu.inc **** #define	EE_HWREG_PTR		volatile EE_UREG *
  98:Generated_Source\PSoC5/ErikaOS_cortex_mx_ee_cpu.inc **** #define	EE_HWREG_ADDR(x)	((EE_HWREG_PTR)(x))
  99:Generated_Source\PSoC5/ErikaOS_cortex_mx_ee_cpu.inc **** #define	EE_HWREG(x)		(*EE_HWREG_ADDR(x))
 100:Generated_Source\PSoC5/ErikaOS_cortex_mx_ee_cpu.inc **** 
 101:Generated_Source\PSoC5/ErikaOS_cortex_mx_ee_cpu.inc **** #ifdef __GNU__
 102:Generated_Source\PSoC5/ErikaOS_cortex_mx_ee_cpu.inc **** 
 103:Generated_Source\PSoC5/ErikaOS_cortex_mx_ee_cpu.inc **** /* Get current SP */
 104:Generated_Source\PSoC5/ErikaOS_cortex_mx_ee_cpu.inc **** __INLINE__ EE_UINT32  __current_sp(void)
 105:Generated_Source\PSoC5/ErikaOS_cortex_mx_ee_cpu.inc **** {
 106:Generated_Source\PSoC5/ErikaOS_cortex_mx_ee_cpu.inc **** EE_UINT32 temp;
 107:Generated_Source\PSoC5/ErikaOS_cortex_mx_ee_cpu.inc **** __ASM ("mov %0, sp" : "=r" (temp) : );
 108:Generated_Source\PSoC5/ErikaOS_cortex_mx_ee_cpu.inc **** return temp;
 109:Generated_Source\PSoC5/ErikaOS_cortex_mx_ee_cpu.inc **** }
 110:Generated_Source\PSoC5/ErikaOS_cortex_mx_ee_cpu.inc **** 
 111:Generated_Source\PSoC5/ErikaOS_cortex_mx_ee_cpu.inc **** /* Set a breakpoint */
 112:Generated_Source\PSoC5/ErikaOS_cortex_mx_ee_cpu.inc **** #define __breakpoint(value)	__ASM ("bkpt "#value)
 113:Generated_Source\PSoC5/ErikaOS_cortex_mx_ee_cpu.inc **** 
 114:Generated_Source\PSoC5/ErikaOS_cortex_mx_ee_cpu.inc **** #endif
 115:Generated_Source\PSoC5/ErikaOS_cortex_mx_ee_cpu.inc **** 
 116:Generated_Source\PSoC5/ErikaOS_cortex_mx_ee_cpu.inc **** /* ISR Priority representation type */
 117:Generated_Source\PSoC5/ErikaOS_cortex_mx_ee_cpu.inc **** typedef EE_UREG EE_TYPEISR2PRIO;
 118:Generated_Source\PSoC5/ErikaOS_cortex_mx_ee_cpu.inc **** 
 119:Generated_Source\PSoC5/ErikaOS_cortex_mx_ee_cpu.inc **** /* Thread IDs */
 120:Generated_Source\PSoC5/ErikaOS_cortex_mx_ee_cpu.inc **** typedef EE_INT32 EE_TID;
 121:Generated_Source\PSoC5/ErikaOS_cortex_mx_ee_cpu.inc **** 
 122:Generated_Source\PSoC5/ErikaOS_cortex_mx_ee_cpu.inc **** /* Thread IDs - unsigned version*/
ARM GAS  C:\Users\zakis\AppData\Local\Temp\ccRC1vp1.s 			page 5


 123:Generated_Source\PSoC5/ErikaOS_cortex_mx_ee_cpu.inc **** typedef EE_UINT32 EE_UTID;
 124:Generated_Source\PSoC5/ErikaOS_cortex_mx_ee_cpu.inc **** 
 125:Generated_Source\PSoC5/ErikaOS_cortex_mx_ee_cpu.inc **** /* Used by the common layer to decide whether to start a new thread */
 126:Generated_Source\PSoC5/ErikaOS_cortex_mx_ee_cpu.inc **** #define TID_IS_STACKED_MARK 0x80000000
 127:Generated_Source\PSoC5/ErikaOS_cortex_mx_ee_cpu.inc **** 
 128:Generated_Source\PSoC5/ErikaOS_cortex_mx_ee_cpu.inc **** /* EE_TYPEIRQ is currently unused */
 129:Generated_Source\PSoC5/ErikaOS_cortex_mx_ee_cpu.inc **** 
 130:Generated_Source\PSoC5/ErikaOS_cortex_mx_ee_cpu.inc **** /* XXX: define EE_TIME? */
 131:Generated_Source\PSoC5/ErikaOS_cortex_mx_ee_cpu.inc **** 
 132:Generated_Source\PSoC5/ErikaOS_cortex_mx_ee_cpu.inc **** /* Use the "standard" implementation */
 133:Generated_Source\PSoC5/ErikaOS_cortex_mx_ee_cpu.inc **** #include "ErikaOS_common_ee_hal_structs.inc"
 134:Generated_Source\PSoC5/ErikaOS_cortex_mx_ee_cpu.inc **** 
 135:Generated_Source\PSoC5/ErikaOS_cortex_mx_ee_cpu.inc **** /******************************************************************************
 136:Generated_Source\PSoC5/ErikaOS_cortex_mx_ee_cpu.inc ****  Application dependent data types
 137:Generated_Source\PSoC5/ErikaOS_cortex_mx_ee_cpu.inc ****  ******************************************************************************/
 138:Generated_Source\PSoC5/ErikaOS_cortex_mx_ee_cpu.inc **** 
 139:Generated_Source\PSoC5/ErikaOS_cortex_mx_ee_cpu.inc **** #ifdef	__HAS_TYPES_H__
 140:Generated_Source\PSoC5/ErikaOS_cortex_mx_ee_cpu.inc **** #include	"types.h"
 141:Generated_Source\PSoC5/ErikaOS_cortex_mx_ee_cpu.inc **** #endif
 142:Generated_Source\PSoC5/ErikaOS_cortex_mx_ee_cpu.inc **** 
 143:Generated_Source\PSoC5/ErikaOS_cortex_mx_ee_cpu.inc **** /******************************************************************************
 144:Generated_Source\PSoC5/ErikaOS_cortex_mx_ee_cpu.inc ****  CPU Peripherals
 145:Generated_Source\PSoC5/ErikaOS_cortex_mx_ee_cpu.inc ****  ******************************************************************************/
 146:Generated_Source\PSoC5/ErikaOS_cortex_mx_ee_cpu.inc **** 
 147:Generated_Source\PSoC5/ErikaOS_cortex_mx_ee_cpu.inc **** #ifdef __CORTEX_MX__
 148:Generated_Source\PSoC5/ErikaOS_cortex_mx_ee_cpu.inc **** #include "ErikaOS_cortex_mx_ee_nvic.inc"
 149:Generated_Source\PSoC5/ErikaOS_cortex_mx_ee_cpu.inc **** #include "ErikaOS_cortex_mx_ee_systick.inc"
 150:Generated_Source\PSoC5/ErikaOS_cortex_mx_ee_cpu.inc **** #endif
 151:Generated_Source\PSoC5/ErikaOS_cortex_mx_ee_cpu.inc **** 
 152:Generated_Source\PSoC5/ErikaOS_cortex_mx_ee_cpu.inc **** /******************************************************************************
 153:Generated_Source\PSoC5/ErikaOS_cortex_mx_ee_cpu.inc ****  HAL Variables
 154:Generated_Source\PSoC5/ErikaOS_cortex_mx_ee_cpu.inc ****  ******************************************************************************/
 155:Generated_Source\PSoC5/ErikaOS_cortex_mx_ee_cpu.inc **** 
 156:Generated_Source\PSoC5/ErikaOS_cortex_mx_ee_cpu.inc **** #ifdef __MULTI__
 157:Generated_Source\PSoC5/ErikaOS_cortex_mx_ee_cpu.inc **** 
 158:Generated_Source\PSoC5/ErikaOS_cortex_mx_ee_cpu.inc **** /* Top-of-stack of each private stack */
 159:Generated_Source\PSoC5/ErikaOS_cortex_mx_ee_cpu.inc **** extern struct EE_TOS EE_cortex_mx_system_tos[];
 160:Generated_Source\PSoC5/ErikaOS_cortex_mx_ee_cpu.inc **** //#define	EE_std_system_tos EE_cortex_mx_system_tos
 161:Generated_Source\PSoC5/ErikaOS_cortex_mx_ee_cpu.inc **** 
 162:Generated_Source\PSoC5/ErikaOS_cortex_mx_ee_cpu.inc **** /* Index of the current stack */
 163:Generated_Source\PSoC5/ErikaOS_cortex_mx_ee_cpu.inc **** extern EE_UREG EE_cortex_mx_active_tos;
 164:Generated_Source\PSoC5/ErikaOS_cortex_mx_ee_cpu.inc **** #define	EE_hal_active_tos EE_cortex_mx_active_tos
 165:Generated_Source\PSoC5/ErikaOS_cortex_mx_ee_cpu.inc **** 
 166:Generated_Source\PSoC5/ErikaOS_cortex_mx_ee_cpu.inc **** /*extern	EE_UREG EE_pic30_thread_tos[];
 167:Generated_Source\PSoC5/ErikaOS_cortex_mx_ee_cpu.inc **** #define	EE_std_thread_tos EE_pic30_thread_tos */
 168:Generated_Source\PSoC5/ErikaOS_cortex_mx_ee_cpu.inc **** #endif /* __MULTI__ */
 169:Generated_Source\PSoC5/ErikaOS_cortex_mx_ee_cpu.inc **** 
 170:Generated_Source\PSoC5/ErikaOS_cortex_mx_ee_cpu.inc **** /*********************************************************************
 171:Generated_Source\PSoC5/ErikaOS_cortex_mx_ee_cpu.inc ****  Cortex M0 interrupt disabling/enabling
 172:Generated_Source\PSoC5/ErikaOS_cortex_mx_ee_cpu.inc ****  *********************************************************************/
 173:Generated_Source\PSoC5/ErikaOS_cortex_mx_ee_cpu.inc **** 
 174:Generated_Source\PSoC5/ErikaOS_cortex_mx_ee_cpu.inc **** /* Used to check the value returned by EE_cortex_mx_disableIRQ */
 175:Generated_Source\PSoC5/ErikaOS_cortex_mx_ee_cpu.inc **** #define EE_cortex_mx_are_IRQs_enabled(ie) ((ie) ^ 1)
 176:Generated_Source\PSoC5/ErikaOS_cortex_mx_ee_cpu.inc **** 
 177:Generated_Source\PSoC5/ErikaOS_cortex_mx_ee_cpu.inc **** /**
 178:Generated_Source\PSoC5/ErikaOS_cortex_mx_ee_cpu.inc ****  * Enable interrupts
 179:Generated_Source\PSoC5/ErikaOS_cortex_mx_ee_cpu.inc ****  */
ARM GAS  C:\Users\zakis\AppData\Local\Temp\ccRC1vp1.s 			page 6


 180:Generated_Source\PSoC5/ErikaOS_cortex_mx_ee_cpu.inc **** __INLINE__ void  EE_cortex_mx_enableIRQ(void)
 181:Generated_Source\PSoC5/ErikaOS_cortex_mx_ee_cpu.inc **** {
 182:Generated_Source\PSoC5/ErikaOS_cortex_mx_ee_cpu.inc **** #ifdef __IAR__
 183:Generated_Source\PSoC5/ErikaOS_cortex_mx_ee_cpu.inc **** 	__ASM ("cpsie i");
 184:Generated_Source\PSoC5/ErikaOS_cortex_mx_ee_cpu.inc **** #else	/* __IAR__ */
 185:Generated_Source\PSoC5/ErikaOS_cortex_mx_ee_cpu.inc **** #ifdef __CCS__
 186:Generated_Source\PSoC5/ErikaOS_cortex_mx_ee_cpu.inc **** 	__ASM ("    cpsie    i\n");
 187:Generated_Source\PSoC5/ErikaOS_cortex_mx_ee_cpu.inc **** #else	/* __CCS__ */
 188:Generated_Source\PSoC5/ErikaOS_cortex_mx_ee_cpu.inc **** #ifdef __KEIL__
 189:Generated_Source\PSoC5/ErikaOS_cortex_mx_ee_cpu.inc **** 	__enable_irq();
 190:Generated_Source\PSoC5/ErikaOS_cortex_mx_ee_cpu.inc **** #else	/* __KEIL__ */
 191:Generated_Source\PSoC5/ErikaOS_cortex_mx_ee_cpu.inc **** 	__ASM volatile("cpsie i");
 192:Generated_Source\PSoC5/ErikaOS_cortex_mx_ee_cpu.inc **** #endif	/* !__KEIL__ */
 193:Generated_Source\PSoC5/ErikaOS_cortex_mx_ee_cpu.inc **** #endif	/* !__CCS__ */
 194:Generated_Source\PSoC5/ErikaOS_cortex_mx_ee_cpu.inc **** #endif	/* !__IAR__ */
 195:Generated_Source\PSoC5/ErikaOS_cortex_mx_ee_cpu.inc **** }
 196:Generated_Source\PSoC5/ErikaOS_cortex_mx_ee_cpu.inc **** 
 197:Generated_Source\PSoC5/ErikaOS_cortex_mx_ee_cpu.inc **** /**
 198:Generated_Source\PSoC5/ErikaOS_cortex_mx_ee_cpu.inc ****  * Disable interrupts
 199:Generated_Source\PSoC5/ErikaOS_cortex_mx_ee_cpu.inc ****  */
 200:Generated_Source\PSoC5/ErikaOS_cortex_mx_ee_cpu.inc **** __INLINE__ void  EE_cortex_mx_disableIRQ(void)
 201:Generated_Source\PSoC5/ErikaOS_cortex_mx_ee_cpu.inc **** {
 202:Generated_Source\PSoC5/ErikaOS_cortex_mx_ee_cpu.inc **** #ifdef __IAR__
 203:Generated_Source\PSoC5/ErikaOS_cortex_mx_ee_cpu.inc **** 	__ASM ("cpsid i");
 204:Generated_Source\PSoC5/ErikaOS_cortex_mx_ee_cpu.inc **** #else	/* __IAR__ */
 205:Generated_Source\PSoC5/ErikaOS_cortex_mx_ee_cpu.inc **** #ifdef __CCS__
 206:Generated_Source\PSoC5/ErikaOS_cortex_mx_ee_cpu.inc **** 	__ASM ("    cpsid    i\n");
 207:Generated_Source\PSoC5/ErikaOS_cortex_mx_ee_cpu.inc **** #else	/* __CCS__ */
 208:Generated_Source\PSoC5/ErikaOS_cortex_mx_ee_cpu.inc **** #ifdef __KEIL__
 209:Generated_Source\PSoC5/ErikaOS_cortex_mx_ee_cpu.inc **** 	__disable_irq();
 210:Generated_Source\PSoC5/ErikaOS_cortex_mx_ee_cpu.inc **** #else	/* __KEIL__ */
 211:Generated_Source\PSoC5/ErikaOS_cortex_mx_ee_cpu.inc **** 	__ASM volatile("cpsid i");
  71              		.loc 2 211 0
  72              		.syntax unified
  73              	@ 211 "Generated_Source\PSoC5/ErikaOS_cortex_mx_ee_cpu.inc" 1
  74 000a 72B6     		cpsid i
  75              	@ 0 "" 2
  76              		.thumb
  77              		.syntax unified
  78              	.LBE81:
  79              	.LBE80:
  80              	.LBB82:
  81              	.LBB83:
 212:Generated_Source\PSoC5/ErikaOS_cortex_mx_ee_cpu.inc **** #endif	/* !__KEIL__ */
 213:Generated_Source\PSoC5/ErikaOS_cortex_mx_ee_cpu.inc **** #endif	/* !__CCS__ */
 214:Generated_Source\PSoC5/ErikaOS_cortex_mx_ee_cpu.inc **** #endif	/* !__IAR__ */
 215:Generated_Source\PSoC5/ErikaOS_cortex_mx_ee_cpu.inc **** }
 216:Generated_Source\PSoC5/ErikaOS_cortex_mx_ee_cpu.inc **** 
 217:Generated_Source\PSoC5/ErikaOS_cortex_mx_ee_cpu.inc **** /**
 218:Generated_Source\PSoC5/ErikaOS_cortex_mx_ee_cpu.inc ****  * Resume interrupts
 219:Generated_Source\PSoC5/ErikaOS_cortex_mx_ee_cpu.inc ****  */
 220:Generated_Source\PSoC5/ErikaOS_cortex_mx_ee_cpu.inc **** __INLINE__ void  EE_cortex_mx_resumeIRQ(EE_FREG f)
 221:Generated_Source\PSoC5/ErikaOS_cortex_mx_ee_cpu.inc **** {
 222:Generated_Source\PSoC5/ErikaOS_cortex_mx_ee_cpu.inc **** #ifdef __IAR__
 223:Generated_Source\PSoC5/ErikaOS_cortex_mx_ee_cpu.inc **** 	__set_PRIMASK(f);
 224:Generated_Source\PSoC5/ErikaOS_cortex_mx_ee_cpu.inc **** #else	/* __IAR__ */
 225:Generated_Source\PSoC5/ErikaOS_cortex_mx_ee_cpu.inc **** #ifdef __CCS__
ARM GAS  C:\Users\zakis\AppData\Local\Temp\ccRC1vp1.s 			page 7


 226:Generated_Source\PSoC5/ErikaOS_cortex_mx_ee_cpu.inc **** 	__ASM ("    msr    primask, r0\n");
 227:Generated_Source\PSoC5/ErikaOS_cortex_mx_ee_cpu.inc **** #else	/* __CCS__ */
 228:Generated_Source\PSoC5/ErikaOS_cortex_mx_ee_cpu.inc **** #ifdef __KEIL__
 229:Generated_Source\PSoC5/ErikaOS_cortex_mx_ee_cpu.inc **** 	register EE_FREG PRIMASK __ASM("primask");
 230:Generated_Source\PSoC5/ErikaOS_cortex_mx_ee_cpu.inc **** 	PRIMASK = f;
 231:Generated_Source\PSoC5/ErikaOS_cortex_mx_ee_cpu.inc **** #else	/* __KEIL__ */
 232:Generated_Source\PSoC5/ErikaOS_cortex_mx_ee_cpu.inc **** 	__ASM volatile("msr primask, %0" :: "r" (f));
 233:Generated_Source\PSoC5/ErikaOS_cortex_mx_ee_cpu.inc **** #endif	/* !__KEIL__ */
 234:Generated_Source\PSoC5/ErikaOS_cortex_mx_ee_cpu.inc **** #endif	/* !__CCS__ */
 235:Generated_Source\PSoC5/ErikaOS_cortex_mx_ee_cpu.inc **** #endif	/* !__IAR__ */
 236:Generated_Source\PSoC5/ErikaOS_cortex_mx_ee_cpu.inc **** }
 237:Generated_Source\PSoC5/ErikaOS_cortex_mx_ee_cpu.inc **** 
 238:Generated_Source\PSoC5/ErikaOS_cortex_mx_ee_cpu.inc **** /**
 239:Generated_Source\PSoC5/ErikaOS_cortex_mx_ee_cpu.inc ****  * Suspend interrupts
 240:Generated_Source\PSoC5/ErikaOS_cortex_mx_ee_cpu.inc ****  */
 241:Generated_Source\PSoC5/ErikaOS_cortex_mx_ee_cpu.inc **** __INLINE__ EE_FREG  EE_cortex_mx_suspendIRQ(void)
 242:Generated_Source\PSoC5/ErikaOS_cortex_mx_ee_cpu.inc **** {
 243:Generated_Source\PSoC5/ErikaOS_cortex_mx_ee_cpu.inc **** #ifndef __CCS__
 244:Generated_Source\PSoC5/ErikaOS_cortex_mx_ee_cpu.inc **** 	EE_FREG istat;
 245:Generated_Source\PSoC5/ErikaOS_cortex_mx_ee_cpu.inc **** #endif
 246:Generated_Source\PSoC5/ErikaOS_cortex_mx_ee_cpu.inc **** #ifdef __IAR__
 247:Generated_Source\PSoC5/ErikaOS_cortex_mx_ee_cpu.inc **** 	 istat = __get_PRIMASK();
 248:Generated_Source\PSoC5/ErikaOS_cortex_mx_ee_cpu.inc **** 	__ASM ("cpsid i");
 249:Generated_Source\PSoC5/ErikaOS_cortex_mx_ee_cpu.inc **** #else	/* __IAR__ */
 250:Generated_Source\PSoC5/ErikaOS_cortex_mx_ee_cpu.inc **** #ifdef __CCS__
 251:Generated_Source\PSoC5/ErikaOS_cortex_mx_ee_cpu.inc **** 	__ASM ("    mrs     r0, primask\n"
 252:Generated_Source\PSoC5/ErikaOS_cortex_mx_ee_cpu.inc **** 	       "    cpsid   i\n"
 253:Generated_Source\PSoC5/ErikaOS_cortex_mx_ee_cpu.inc **** 	       "    bx      lr\n");
 254:Generated_Source\PSoC5/ErikaOS_cortex_mx_ee_cpu.inc **** #else	/* __CCS__ */
 255:Generated_Source\PSoC5/ErikaOS_cortex_mx_ee_cpu.inc **** #ifdef __KEIL__
 256:Generated_Source\PSoC5/ErikaOS_cortex_mx_ee_cpu.inc **** 	register EE_FREG PRIMASK __ASM("primask");
 257:Generated_Source\PSoC5/ErikaOS_cortex_mx_ee_cpu.inc **** 	istat = PRIMASK;
 258:Generated_Source\PSoC5/ErikaOS_cortex_mx_ee_cpu.inc **** 	__disable_irq();
 259:Generated_Source\PSoC5/ErikaOS_cortex_mx_ee_cpu.inc **** #else	/* __KEIL__ */
 260:Generated_Source\PSoC5/ErikaOS_cortex_mx_ee_cpu.inc **** 	__ASM volatile ("mrs %0, primask" : "=r" (istat) );
 261:Generated_Source\PSoC5/ErikaOS_cortex_mx_ee_cpu.inc **** 	__ASM volatile ("cpsid i");
 262:Generated_Source\PSoC5/ErikaOS_cortex_mx_ee_cpu.inc **** #endif	/* !__KEIL__ */
 263:Generated_Source\PSoC5/ErikaOS_cortex_mx_ee_cpu.inc **** #endif	/* !__CCS__ */
 264:Generated_Source\PSoC5/ErikaOS_cortex_mx_ee_cpu.inc **** #endif	/* !__IAR__ */
 265:Generated_Source\PSoC5/ErikaOS_cortex_mx_ee_cpu.inc **** #ifdef __CCS__
 266:Generated_Source\PSoC5/ErikaOS_cortex_mx_ee_cpu.inc **** 	return 0;
 267:Generated_Source\PSoC5/ErikaOS_cortex_mx_ee_cpu.inc **** #else
 268:Generated_Source\PSoC5/ErikaOS_cortex_mx_ee_cpu.inc **** 	return istat;
 269:Generated_Source\PSoC5/ErikaOS_cortex_mx_ee_cpu.inc **** #endif
 270:Generated_Source\PSoC5/ErikaOS_cortex_mx_ee_cpu.inc **** }
 271:Generated_Source\PSoC5/ErikaOS_cortex_mx_ee_cpu.inc **** 
 272:Generated_Source\PSoC5/ErikaOS_cortex_mx_ee_cpu.inc **** /**
 273:Generated_Source\PSoC5/ErikaOS_cortex_mx_ee_cpu.inc ****  * Return true (not 0) if IRQs are enabled, 0 (false) if IRQ are disabled.
 274:Generated_Source\PSoC5/ErikaOS_cortex_mx_ee_cpu.inc ****  */
 275:Generated_Source\PSoC5/ErikaOS_cortex_mx_ee_cpu.inc **** __INLINE__ EE_UINT32  EE_cortex_mx_get_IRQ_enabled(void)
 276:Generated_Source\PSoC5/ErikaOS_cortex_mx_ee_cpu.inc **** {
 277:Generated_Source\PSoC5/ErikaOS_cortex_mx_ee_cpu.inc **** #ifndef __CCS__
 278:Generated_Source\PSoC5/ErikaOS_cortex_mx_ee_cpu.inc **** 	EE_UREG ie;
 279:Generated_Source\PSoC5/ErikaOS_cortex_mx_ee_cpu.inc **** #endif
 280:Generated_Source\PSoC5/ErikaOS_cortex_mx_ee_cpu.inc **** #ifdef __IAR__
 281:Generated_Source\PSoC5/ErikaOS_cortex_mx_ee_cpu.inc **** 	ie = __get_PRIMASK();
 282:Generated_Source\PSoC5/ErikaOS_cortex_mx_ee_cpu.inc **** #else	/* __IAR__ */
ARM GAS  C:\Users\zakis\AppData\Local\Temp\ccRC1vp1.s 			page 8


 283:Generated_Source\PSoC5/ErikaOS_cortex_mx_ee_cpu.inc **** #ifdef __CCS__
 284:Generated_Source\PSoC5/ErikaOS_cortex_mx_ee_cpu.inc **** 	__ASM ("    MRS     r0, PRIMASK\n"
 285:Generated_Source\PSoC5/ErikaOS_cortex_mx_ee_cpu.inc **** 	       "    EOR     r0, #1\n"
 286:Generated_Source\PSoC5/ErikaOS_cortex_mx_ee_cpu.inc **** 	       "    bx      lr\n");
 287:Generated_Source\PSoC5/ErikaOS_cortex_mx_ee_cpu.inc **** #else	/* __CCS__ */
 288:Generated_Source\PSoC5/ErikaOS_cortex_mx_ee_cpu.inc **** #ifdef __KEIL__
 289:Generated_Source\PSoC5/ErikaOS_cortex_mx_ee_cpu.inc **** 	register EE_FREG PRIMASK __ASM("primask");
 290:Generated_Source\PSoC5/ErikaOS_cortex_mx_ee_cpu.inc **** 	ie = PRIMASK;
 291:Generated_Source\PSoC5/ErikaOS_cortex_mx_ee_cpu.inc **** #else	/* __KEIL__ */
 292:Generated_Source\PSoC5/ErikaOS_cortex_mx_ee_cpu.inc **** 	__ASM volatile ("MRS %0, primask" : "=r" (ie) );
 293:Generated_Source\PSoC5/ErikaOS_cortex_mx_ee_cpu.inc **** #endif	/* !__KEIL__ */
 294:Generated_Source\PSoC5/ErikaOS_cortex_mx_ee_cpu.inc **** #endif	/* !__CCS__ */
 295:Generated_Source\PSoC5/ErikaOS_cortex_mx_ee_cpu.inc **** #endif	/* !__IAR__ */
 296:Generated_Source\PSoC5/ErikaOS_cortex_mx_ee_cpu.inc **** #ifdef __CCS__
 297:Generated_Source\PSoC5/ErikaOS_cortex_mx_ee_cpu.inc **** 	return 0;
 298:Generated_Source\PSoC5/ErikaOS_cortex_mx_ee_cpu.inc **** #else
 299:Generated_Source\PSoC5/ErikaOS_cortex_mx_ee_cpu.inc **** 	return EE_cortex_mx_are_IRQs_enabled(ie);
 300:Generated_Source\PSoC5/ErikaOS_cortex_mx_ee_cpu.inc **** #endif
 301:Generated_Source\PSoC5/ErikaOS_cortex_mx_ee_cpu.inc **** }
 302:Generated_Source\PSoC5/ErikaOS_cortex_mx_ee_cpu.inc **** 
 303:Generated_Source\PSoC5/ErikaOS_cortex_mx_ee_cpu.inc **** __INLINE__ EE_TYPEISR2PRIO  EE_cortex_mx_get_int_prio(void)
 304:Generated_Source\PSoC5/ErikaOS_cortex_mx_ee_cpu.inc **** {
 305:Generated_Source\PSoC5/ErikaOS_cortex_mx_ee_cpu.inc **** #ifdef __CORTEX_M4__
 306:Generated_Source\PSoC5/ErikaOS_cortex_mx_ee_cpu.inc **** 
 307:Generated_Source\PSoC5/ErikaOS_cortex_mx_ee_cpu.inc **** #ifndef __CCS__
 308:Generated_Source\PSoC5/ErikaOS_cortex_mx_ee_cpu.inc **** 	register EE_UREG prio;
 309:Generated_Source\PSoC5/ErikaOS_cortex_mx_ee_cpu.inc **** #ifdef	__KEIL__
 310:Generated_Source\PSoC5/ErikaOS_cortex_mx_ee_cpu.inc **** 	register EE_FREG BASEPRI __ASM("basepri");
 311:Generated_Source\PSoC5/ErikaOS_cortex_mx_ee_cpu.inc **** #endif
 312:Generated_Source\PSoC5/ErikaOS_cortex_mx_ee_cpu.inc **** 
 313:Generated_Source\PSoC5/ErikaOS_cortex_mx_ee_cpu.inc **** #endif
 314:Generated_Source\PSoC5/ErikaOS_cortex_mx_ee_cpu.inc **** 
 315:Generated_Source\PSoC5/ErikaOS_cortex_mx_ee_cpu.inc **** #ifdef __CCS__
 316:Generated_Source\PSoC5/ErikaOS_cortex_mx_ee_cpu.inc **** 	/* NVIC_INT_PRI_S = 5 */
 317:Generated_Source\PSoC5/ErikaOS_cortex_mx_ee_cpu.inc **** 	__ASM ("    MRS     R0, BASEPRI\n"
 318:Generated_Source\PSoC5/ErikaOS_cortex_mx_ee_cpu.inc **** 	       "    ASR     R0, #5\n"
 319:Generated_Source\PSoC5/ErikaOS_cortex_mx_ee_cpu.inc **** 	       "    BLX     LR\n");
 320:Generated_Source\PSoC5/ErikaOS_cortex_mx_ee_cpu.inc **** #else	/* __CCS__ */
 321:Generated_Source\PSoC5/ErikaOS_cortex_mx_ee_cpu.inc **** #ifdef __KEIL__
 322:Generated_Source\PSoC5/ErikaOS_cortex_mx_ee_cpu.inc **** 	prio = BASEPRI;
 323:Generated_Source\PSoC5/ErikaOS_cortex_mx_ee_cpu.inc **** #else	/* __KEIL__ */
 324:Generated_Source\PSoC5/ErikaOS_cortex_mx_ee_cpu.inc **** #ifdef __GNU__
 325:Generated_Source\PSoC5/ErikaOS_cortex_mx_ee_cpu.inc **** 	__ASM volatile("MRS %0, BASEPRI" : "=r" (prio) :: );
  82              		.loc 2 325 0
  83              		.syntax unified
  84              	@ 325 "Generated_Source\PSoC5/ErikaOS_cortex_mx_ee_cpu.inc" 1
  85 000c EFF31184 		MRS r4, BASEPRI
  86              	@ 0 "" 2
  87              	.LVL2:
  88              		.thumb
  89              		.syntax unified
  90              	.LBE83:
  91              	.LBE82:
  92              	.LBB84:
  93              	.LBB85:
 326:Generated_Source\PSoC5/ErikaOS_cortex_mx_ee_cpu.inc **** #else
 327:Generated_Source\PSoC5/ErikaOS_cortex_mx_ee_cpu.inc **** 	__ASM volatile("MRS %0, BASEPRI" :: "=r" (prio));
ARM GAS  C:\Users\zakis\AppData\Local\Temp\ccRC1vp1.s 			page 9


 328:Generated_Source\PSoC5/ErikaOS_cortex_mx_ee_cpu.inc **** #endif	/* !__GNU__ */
 329:Generated_Source\PSoC5/ErikaOS_cortex_mx_ee_cpu.inc **** #endif	/* !__KEIL__ */
 330:Generated_Source\PSoC5/ErikaOS_cortex_mx_ee_cpu.inc **** #endif	/* !__CCS__ */
 331:Generated_Source\PSoC5/ErikaOS_cortex_mx_ee_cpu.inc **** 
 332:Generated_Source\PSoC5/ErikaOS_cortex_mx_ee_cpu.inc **** #ifdef __CCS__
 333:Generated_Source\PSoC5/ErikaOS_cortex_mx_ee_cpu.inc **** 	return 0;
 334:Generated_Source\PSoC5/ErikaOS_cortex_mx_ee_cpu.inc **** #else
 335:Generated_Source\PSoC5/ErikaOS_cortex_mx_ee_cpu.inc **** 	return prio >> NVIC_INT_PRI_S;
 336:Generated_Source\PSoC5/ErikaOS_cortex_mx_ee_cpu.inc **** #endif
 337:Generated_Source\PSoC5/ErikaOS_cortex_mx_ee_cpu.inc **** 
 338:Generated_Source\PSoC5/ErikaOS_cortex_mx_ee_cpu.inc **** #else	/* __CORTEX_M4__ */
 339:Generated_Source\PSoC5/ErikaOS_cortex_mx_ee_cpu.inc **** 	return 0;
 340:Generated_Source\PSoC5/ErikaOS_cortex_mx_ee_cpu.inc **** #endif	/* !__CORTEX_M4__ */
 341:Generated_Source\PSoC5/ErikaOS_cortex_mx_ee_cpu.inc **** }
 342:Generated_Source\PSoC5/ErikaOS_cortex_mx_ee_cpu.inc **** 
 343:Generated_Source\PSoC5/ErikaOS_cortex_mx_ee_cpu.inc **** __INLINE__ void  EE_cortex_mx_set_int_prio(
 344:Generated_Source\PSoC5/ErikaOS_cortex_mx_ee_cpu.inc ****   EE_TYPEISR2PRIO prio
 345:Generated_Source\PSoC5/ErikaOS_cortex_mx_ee_cpu.inc **** )
 346:Generated_Source\PSoC5/ErikaOS_cortex_mx_ee_cpu.inc **** {
 347:Generated_Source\PSoC5/ErikaOS_cortex_mx_ee_cpu.inc **** #ifdef __CORTEX_M4__
 348:Generated_Source\PSoC5/ErikaOS_cortex_mx_ee_cpu.inc **** #ifdef __CCS__
 349:Generated_Source\PSoC5/ErikaOS_cortex_mx_ee_cpu.inc **** 	/* NVIC_INT_PRI_S = 5 */
 350:Generated_Source\PSoC5/ErikaOS_cortex_mx_ee_cpu.inc **** 	__ASM ("    LSL    R0, #5\n"
 351:Generated_Source\PSoC5/ErikaOS_cortex_mx_ee_cpu.inc **** 	       "    MSR    BASEPRI, R0\n");
 352:Generated_Source\PSoC5/ErikaOS_cortex_mx_ee_cpu.inc **** #else	/* __CCS__ */
 353:Generated_Source\PSoC5/ErikaOS_cortex_mx_ee_cpu.inc **** #ifdef __KEIL__
 354:Generated_Source\PSoC5/ErikaOS_cortex_mx_ee_cpu.inc **** 	register EE_FREG BASEPRI __ASM("basepri");
 355:Generated_Source\PSoC5/ErikaOS_cortex_mx_ee_cpu.inc **** 	BASEPRI = (prio << NVIC_INT_PRI_S);
 356:Generated_Source\PSoC5/ErikaOS_cortex_mx_ee_cpu.inc **** #else	/* __KEIL__ */
 357:Generated_Source\PSoC5/ErikaOS_cortex_mx_ee_cpu.inc **** #ifdef __GNU__
 358:Generated_Source\PSoC5/ErikaOS_cortex_mx_ee_cpu.inc **** 	__ASM volatile("MSR BASEPRI, %0" :: "r" (prio << NVIC_INT_PRI_S) : );
 359:Generated_Source\PSoC5/ErikaOS_cortex_mx_ee_cpu.inc **** #else
 360:Generated_Source\PSoC5/ErikaOS_cortex_mx_ee_cpu.inc **** 	__ASM volatile("MSR BASEPRI, %0" :: "r" (prio << NVIC_INT_PRI_S));
 361:Generated_Source\PSoC5/ErikaOS_cortex_mx_ee_cpu.inc **** #endif	/* !__GNU__ */
 362:Generated_Source\PSoC5/ErikaOS_cortex_mx_ee_cpu.inc **** #endif	/* !__KEIL__ */
 363:Generated_Source\PSoC5/ErikaOS_cortex_mx_ee_cpu.inc **** #endif	/* !__CCS__ */
 364:Generated_Source\PSoC5/ErikaOS_cortex_mx_ee_cpu.inc **** #endif	/* __CORTEX_M4__ */
 365:Generated_Source\PSoC5/ErikaOS_cortex_mx_ee_cpu.inc **** }
 366:Generated_Source\PSoC5/ErikaOS_cortex_mx_ee_cpu.inc **** 
 367:Generated_Source\PSoC5/ErikaOS_cortex_mx_ee_cpu.inc **** __INLINE__ EE_TYPEISR2PRIO  EE_cortex_mx_get_isr_prio(
 368:Generated_Source\PSoC5/ErikaOS_cortex_mx_ee_cpu.inc ****   void
 369:Generated_Source\PSoC5/ErikaOS_cortex_mx_ee_cpu.inc **** )
 370:Generated_Source\PSoC5/ErikaOS_cortex_mx_ee_cpu.inc **** {
 371:Generated_Source\PSoC5/ErikaOS_cortex_mx_ee_cpu.inc **** #ifdef __CORTEX_M4__
 372:Generated_Source\PSoC5/ErikaOS_cortex_mx_ee_cpu.inc ****   register EE_UREG vectact = NVIC_INT_CTRL_R & NVIC_INT_CTRL_VEC_ACT_M;
  94              		.loc 2 372 0
  95 0010 1E4B     		ldr	r3, .L9
  96 0012 1B68     		ldr	r3, [r3]
  97 0014 DBB2     		uxtb	r3, r3
  98              	.LVL3:
 373:Generated_Source\PSoC5/ErikaOS_cortex_mx_ee_cpu.inc ****   register EE_TYPEISR2PRIO prio = 0;
 374:Generated_Source\PSoC5/ErikaOS_cortex_mx_ee_cpu.inc **** 
 375:Generated_Source\PSoC5/ErikaOS_cortex_mx_ee_cpu.inc ****   if (vectact > EE_CORTEX_MX_SYSTICK_EXC_NUM) {
  99              		.loc 2 375 0
 100 0016 0F2B     		cmp	r3, #15
 101 0018 10D9     		bls	.L4
 376:Generated_Source\PSoC5/ErikaOS_cortex_mx_ee_cpu.inc ****     vectact -= EE_CORTEX_MX_SYSTICK_EXC_NUM + 1;
ARM GAS  C:\Users\zakis\AppData\Local\Temp\ccRC1vp1.s 			page 10


 102              		.loc 2 376 0
 103 001a 103B     		subs	r3, r3, #16
 104              	.LVL4:
 377:Generated_Source\PSoC5/ErikaOS_cortex_mx_ee_cpu.inc ****     prio = NVIC_GET_PRI(vectact);
 105              		.loc 2 377 0
 106 001c 23F00302 		bic	r2, r3, #3
 107 0020 02F16042 		add	r2, r2, #-536870912
 108 0024 02F56442 		add	r2, r2, #58368
 109 0028 1168     		ldr	r1, [r2]
 110 002a DB00     		lsls	r3, r3, #3
 111              	.LVL5:
 112 002c 03F01803 		and	r3, r3, #24
 113 0030 E022     		movs	r2, #224
 114 0032 9A40     		lsls	r2, r2, r3
 115 0034 0A40     		ands	r2, r2, r1
 116 0036 22FA03F3 		lsr	r3, r2, r3
 117              	.LVL6:
 118 003a 06E0     		b	.L5
 119              	.LVL7:
 120              	.L4:
 378:Generated_Source\PSoC5/ErikaOS_cortex_mx_ee_cpu.inc ****   }
 379:Generated_Source\PSoC5/ErikaOS_cortex_mx_ee_cpu.inc **** #ifdef	__USE_SYSTICK__
 380:Generated_Source\PSoC5/ErikaOS_cortex_mx_ee_cpu.inc ****   else if (vectact == EE_CORTEX_MX_SYSTICK_EXC_NUM) {
 121              		.loc 2 380 0
 122 003c 0F2B     		cmp	r3, #15
 123 003e 03D1     		bne	.L8
 381:Generated_Source\PSoC5/ErikaOS_cortex_mx_ee_cpu.inc ****     prio = NVIC_SYS_PRI3_R >> NVIC_SYS_PRI3_TICK_S;
 124              		.loc 2 381 0
 125 0040 134B     		ldr	r3, .L9+4
 126              	.LVL8:
 127 0042 1B68     		ldr	r3, [r3]
 128 0044 1B0E     		lsrs	r3, r3, #24
 129              	.LVL9:
 130 0046 00E0     		b	.L5
 131              	.LVL10:
 132              	.L8:
 373:Generated_Source\PSoC5/ErikaOS_cortex_mx_ee_cpu.inc **** 
 133              		.loc 2 373 0
 134 0048 0023     		movs	r3, #0
 135              	.LVL11:
 136              	.L5:
 137              	.LBE85:
 138              	.LBE84:
 139              	.LBB86:
 140              	.LBB87:
 358:Generated_Source\PSoC5/ErikaOS_cortex_mx_ee_cpu.inc **** #else
 141              		.loc 2 358 0
 142              		.syntax unified
 143              	@ 358 "Generated_Source\PSoC5/ErikaOS_cortex_mx_ee_cpu.inc" 1
 144 004a 83F31188 		MSR BASEPRI, r3
 145              	@ 0 "" 2
 146              		.thumb
 147              		.syntax unified
 148              	.LBE87:
 149              	.LBE86:
 150              	.LBB88:
 151              	.LBB89:
ARM GAS  C:\Users\zakis\AppData\Local\Temp\ccRC1vp1.s 			page 11


 152              		.file 3 "Generated_Source\\PSoC5/ErikaOS_common_ee_irqstub.inc"
   1:Generated_Source\PSoC5/ErikaOS_common_ee_irqstub.inc **** /* ###*B*###
   2:Generated_Source\PSoC5/ErikaOS_common_ee_irqstub.inc ****  * ERIKA Enterprise - a tiny RTOS for small microcontrollers
   3:Generated_Source\PSoC5/ErikaOS_common_ee_irqstub.inc ****  *
   4:Generated_Source\PSoC5/ErikaOS_common_ee_irqstub.inc ****  * Copyright (C) 2002-2010  Evidence Srl
   5:Generated_Source\PSoC5/ErikaOS_common_ee_irqstub.inc ****  *
   6:Generated_Source\PSoC5/ErikaOS_common_ee_irqstub.inc ****  * This file is part of ERIKA Enterprise.
   7:Generated_Source\PSoC5/ErikaOS_common_ee_irqstub.inc ****  *
   8:Generated_Source\PSoC5/ErikaOS_common_ee_irqstub.inc ****  * ERIKA Enterprise is free software; you can redistribute it
   9:Generated_Source\PSoC5/ErikaOS_common_ee_irqstub.inc ****  * and/or modify it under the terms of the GNU General Public License
  10:Generated_Source\PSoC5/ErikaOS_common_ee_irqstub.inc ****  * version 2 as published by the Free Software Foundation,
  11:Generated_Source\PSoC5/ErikaOS_common_ee_irqstub.inc ****  * (with a special exception described below).
  12:Generated_Source\PSoC5/ErikaOS_common_ee_irqstub.inc ****  *
  13:Generated_Source\PSoC5/ErikaOS_common_ee_irqstub.inc ****  * Linking this code statically or dynamically with other modules is
  14:Generated_Source\PSoC5/ErikaOS_common_ee_irqstub.inc ****  * making a combined work based on this code.  Thus, the terms and
  15:Generated_Source\PSoC5/ErikaOS_common_ee_irqstub.inc ****  * conditions of the GNU General Public License cover the whole
  16:Generated_Source\PSoC5/ErikaOS_common_ee_irqstub.inc ****  * combination.
  17:Generated_Source\PSoC5/ErikaOS_common_ee_irqstub.inc ****  *
  18:Generated_Source\PSoC5/ErikaOS_common_ee_irqstub.inc ****  * As a special exception, the copyright holders of this library give you
  19:Generated_Source\PSoC5/ErikaOS_common_ee_irqstub.inc ****  * permission to link this code with independent modules to produce an
  20:Generated_Source\PSoC5/ErikaOS_common_ee_irqstub.inc ****  * executable, regardless of the license terms of these independent
  21:Generated_Source\PSoC5/ErikaOS_common_ee_irqstub.inc ****  * modules, and to copy and distribute the resulting executable under
  22:Generated_Source\PSoC5/ErikaOS_common_ee_irqstub.inc ****  * terms of your choice, provided that you also meet, for each linked
  23:Generated_Source\PSoC5/ErikaOS_common_ee_irqstub.inc ****  * independent module, the terms and conditions of the license of that
  24:Generated_Source\PSoC5/ErikaOS_common_ee_irqstub.inc ****  * module.  An independent module is a module which is not derived from
  25:Generated_Source\PSoC5/ErikaOS_common_ee_irqstub.inc ****  * or based on this library.  If you modify this code, you may extend
  26:Generated_Source\PSoC5/ErikaOS_common_ee_irqstub.inc ****  * this exception to your version of the code, but you are not
  27:Generated_Source\PSoC5/ErikaOS_common_ee_irqstub.inc ****  * obligated to do so.  If you do not wish to do so, delete this
  28:Generated_Source\PSoC5/ErikaOS_common_ee_irqstub.inc ****  * exception statement from your version.
  29:Generated_Source\PSoC5/ErikaOS_common_ee_irqstub.inc ****  *
  30:Generated_Source\PSoC5/ErikaOS_common_ee_irqstub.inc ****  * ERIKA Enterprise is distributed in the hope that it will be
  31:Generated_Source\PSoC5/ErikaOS_common_ee_irqstub.inc ****  * useful, but WITHOUT ANY WARRANTY; without even the implied warranty
  32:Generated_Source\PSoC5/ErikaOS_common_ee_irqstub.inc ****  * of MERCHANTABILITY or FITNESS FOR A PARTICULAR PURPOSE.  See the
  33:Generated_Source\PSoC5/ErikaOS_common_ee_irqstub.inc ****  * GNU General Public License version 2 for more details.
  34:Generated_Source\PSoC5/ErikaOS_common_ee_irqstub.inc ****  *
  35:Generated_Source\PSoC5/ErikaOS_common_ee_irqstub.inc ****  * You should have received a copy of the GNU General Public License
  36:Generated_Source\PSoC5/ErikaOS_common_ee_irqstub.inc ****  * version 2 along with ERIKA Enterprise; if not, write to the
  37:Generated_Source\PSoC5/ErikaOS_common_ee_irqstub.inc ****  * Free Software Foundation, Inc., 51 Franklin Street, Fifth Floor,
  38:Generated_Source\PSoC5/ErikaOS_common_ee_irqstub.inc ****  * Boston, MA 02110-1301 USA.
  39:Generated_Source\PSoC5/ErikaOS_common_ee_irqstub.inc ****  * ###*E*### */
  40:Generated_Source\PSoC5/ErikaOS_common_ee_irqstub.inc **** 
  41:Generated_Source\PSoC5/ErikaOS_common_ee_irqstub.inc **** /*
  42:Generated_Source\PSoC5/ErikaOS_common_ee_irqstub.inc ****  * Some IRQ-related stuff.
  43:Generated_Source\PSoC5/ErikaOS_common_ee_irqstub.inc ****  * Author: 2009-2010,  Bernardo  Dal Seno
  44:Generated_Source\PSoC5/ErikaOS_common_ee_irqstub.inc ****  */
  45:Generated_Source\PSoC5/ErikaOS_common_ee_irqstub.inc **** 
  46:Generated_Source\PSoC5/ErikaOS_common_ee_irqstub.inc **** /*
  47:Generated_Source\PSoC5/ErikaOS_common_ee_irqstub.inc ****  * PSoC Port and API Generation
  48:Generated_Source\PSoC5/ErikaOS_common_ee_irqstub.inc ****  * Carlos Fernando Meier Martinez
  49:Generated_Source\PSoC5/ErikaOS_common_ee_irqstub.inc ****  * Hochschule Darmstadt, Germany. 2017.
  50:Generated_Source\PSoC5/ErikaOS_common_ee_irqstub.inc ****  */
  51:Generated_Source\PSoC5/ErikaOS_common_ee_irqstub.inc **** 
  52:Generated_Source\PSoC5/ErikaOS_common_ee_irqstub.inc **** /*******************************************************************************
  53:Generated_Source\PSoC5/ErikaOS_common_ee_irqstub.inc ****  *                        !!!WARNING!!!
  54:Generated_Source\PSoC5/ErikaOS_common_ee_irqstub.inc ****  * This header depends on "cpu/common/inc/ee_context.inc" or your own
  55:Generated_Source\PSoC5/ErikaOS_common_ee_irqstub.inc ****  * implementation of the same. You should include it file before including this
  56:Generated_Source\PSoC5/ErikaOS_common_ee_irqstub.inc ****  * file
ARM GAS  C:\Users\zakis\AppData\Local\Temp\ccRC1vp1.s 			page 12


  57:Generated_Source\PSoC5/ErikaOS_common_ee_irqstub.inc ****  ******************************************************************************/
  58:Generated_Source\PSoC5/ErikaOS_common_ee_irqstub.inc **** 
  59:Generated_Source\PSoC5/ErikaOS_common_ee_irqstub.inc **** #ifndef PKG_CPU_COMMON_INC_EE_IRQSTUB_H
  60:Generated_Source\PSoC5/ErikaOS_common_ee_irqstub.inc **** #define PKG_CPU_COMMON_INC_EE_IRQSTUB_H
  61:Generated_Source\PSoC5/ErikaOS_common_ee_irqstub.inc **** 
  62:Generated_Source\PSoC5/ErikaOS_common_ee_irqstub.inc **** /* this bring EE_IRQ_nesting_level definition */
  63:Generated_Source\PSoC5/ErikaOS_common_ee_irqstub.inc **** #include "ErikaOS_common_ee_primitives.inc"
  64:Generated_Source\PSoC5/ErikaOS_common_ee_irqstub.inc **** 
  65:Generated_Source\PSoC5/ErikaOS_common_ee_irqstub.inc **** /* True if we are inside an interrupt-serving routine */
  66:Generated_Source\PSoC5/ErikaOS_common_ee_irqstub.inc **** __INLINE__ EE_TYPEBOOL  EE_is_inside_ISR_call( void )
  67:Generated_Source\PSoC5/ErikaOS_common_ee_irqstub.inc **** {
  68:Generated_Source\PSoC5/ErikaOS_common_ee_irqstub.inc ****   return (EE_IRQ_nesting_level > 0U);
  69:Generated_Source\PSoC5/ErikaOS_common_ee_irqstub.inc **** }
  70:Generated_Source\PSoC5/ErikaOS_common_ee_irqstub.inc **** 
  71:Generated_Source\PSoC5/ErikaOS_common_ee_irqstub.inc **** 
  72:Generated_Source\PSoC5/ErikaOS_common_ee_irqstub.inc **** /* EE_decrement_IRQ_nesting_level() and EE_increment_IRQ_nesting_level() are
  73:Generated_Source\PSoC5/ErikaOS_common_ee_irqstub.inc ****  * used to keep track of the current IRQ nesting level.
  74:Generated_Source\PSoC5/ErikaOS_common_ee_irqstub.inc ****  * EE_std_enableIRQ_nested() and EE_std_disableIRQ_nested() are used to control
  75:Generated_Source\PSoC5/ErikaOS_common_ee_irqstub.inc ****  * when IRQ nesting is enabled.
  76:Generated_Source\PSoC5/ErikaOS_common_ee_irqstub.inc ****  */
  77:Generated_Source\PSoC5/ErikaOS_common_ee_irqstub.inc **** #if defined(__AS_SC4__)
  78:Generated_Source\PSoC5/ErikaOS_common_ee_irqstub.inc **** /* For SC4 the nesting level is updated inside the prestub and postub */
  79:Generated_Source\PSoC5/ErikaOS_common_ee_irqstub.inc **** __INLINE__ void  EE_decrement_IRQ_nesting_level(void) {}
  80:Generated_Source\PSoC5/ErikaOS_common_ee_irqstub.inc **** __INLINE__ void  EE_increment_IRQ_nesting_level(void) {}
  81:Generated_Source\PSoC5/ErikaOS_common_ee_irqstub.inc **** __INLINE__ void  EE_std_enableIRQ_nested(void) {}
  82:Generated_Source\PSoC5/ErikaOS_common_ee_irqstub.inc **** __INLINE__ void  EE_std_disableIRQ_nested(void) {}
  83:Generated_Source\PSoC5/ErikaOS_common_ee_irqstub.inc **** #elif defined(__ALLOW_NESTED_IRQ__)
  84:Generated_Source\PSoC5/ErikaOS_common_ee_irqstub.inc **** __INLINE__ void  EE_decrement_IRQ_nesting_level(void) { --EE_IRQ_nesting_level; }
  85:Generated_Source\PSoC5/ErikaOS_common_ee_irqstub.inc **** __INLINE__ void  EE_increment_IRQ_nesting_level(void) { ++EE_IRQ_nesting_level; }
 153              		.loc 3 85 0
 154 004e 114A     		ldr	r2, .L9+8
 155 0050 1368     		ldr	r3, [r2]
 156 0052 0133     		adds	r3, r3, #1
 157 0054 1360     		str	r3, [r2]
 158              	.LBE89:
 159              	.LBE88:
  33:source\asw/main.c **** {
 160              		.loc 1 33 0
 161 0056 012B     		cmp	r3, #1
 162 0058 01D1     		bne	.L6
  33:source\asw/main.c **** {
 163              		.loc 1 33 0 is_stmt 0 discriminator 1
 164 005a FFF7FEFF 		bl	EE_cortex_mx_change_IRQ_stack
 165              	.LVL12:
 166              	.L6:
 167              	.LBB90:
 168              	.LBB91:
 191:Generated_Source\PSoC5/ErikaOS_cortex_mx_ee_cpu.inc **** #endif	/* !__KEIL__ */
 169              		.loc 2 191 0 is_stmt 1 discriminator 3
 170              		.syntax unified
 171              	@ 191 "Generated_Source\PSoC5/ErikaOS_cortex_mx_ee_cpu.inc" 1
 172 005e 62B6     		cpsie i
 173              	@ 0 "" 2
 174              		.thumb
 175              		.syntax unified
 176              	.LBE91:
 177              	.LBE90:
ARM GAS  C:\Users\zakis\AppData\Local\Temp\ccRC1vp1.s 			page 13


  33:source\asw/main.c **** {
 178              		.loc 1 33 0 discriminator 3
 179 0060 FFF7FEFF 		bl	ISR2_systick_handler
 180              	.LVL13:
 181              	.LBB92:
 182              	.LBB93:
 211:Generated_Source\PSoC5/ErikaOS_cortex_mx_ee_cpu.inc **** #endif	/* !__KEIL__ */
 183              		.loc 2 211 0 discriminator 3
 184              		.syntax unified
 185              	@ 211 "Generated_Source\PSoC5/ErikaOS_cortex_mx_ee_cpu.inc" 1
 186 0064 72B6     		cpsid i
 187              	@ 0 "" 2
 188              	.LVL14:
 189              		.thumb
 190              		.syntax unified
 191              	.LBE93:
 192              	.LBE92:
 193              	.LBB94:
 194              	.LBB95:
 358:Generated_Source\PSoC5/ErikaOS_cortex_mx_ee_cpu.inc **** #else
 195              		.loc 2 358 0 discriminator 3
 196              		.syntax unified
 197              	@ 358 "Generated_Source\PSoC5/ErikaOS_cortex_mx_ee_cpu.inc" 1
 198 0066 84F31188 		MSR BASEPRI, r4
 199              	@ 0 "" 2
 200              	.LVL15:
 201              		.thumb
 202              		.syntax unified
 203              	.LBE95:
 204              	.LBE94:
 205              	.LBB96:
 206              	.LBB97:
  86:Generated_Source\PSoC5/ErikaOS_common_ee_irqstub.inc **** /*  EE_std_enableIRQ_nested() and EE_std_disableIRQ_nested() must be defined in
  87:Generated_Source\PSoC5/ErikaOS_common_ee_irqstub.inc ****  *  the platform-dependent part, as they dependend on the particular way
  88:Generated_Source\PSoC5/ErikaOS_common_ee_irqstub.inc ****  *  interrupts are handled by the CPU. */
  89:Generated_Source\PSoC5/ErikaOS_common_ee_irqstub.inc **** #else
  90:Generated_Source\PSoC5/ErikaOS_common_ee_irqstub.inc **** __INLINE__ void  EE_decrement_IRQ_nesting_level(void) { EE_IRQ_nesting_level = 0U; }
  91:Generated_Source\PSoC5/ErikaOS_common_ee_irqstub.inc **** __INLINE__ void  EE_increment_IRQ_nesting_level(void) { EE_IRQ_nesting_level = 1U; }
  92:Generated_Source\PSoC5/ErikaOS_common_ee_irqstub.inc **** __INLINE__ void  EE_std_enableIRQ_nested(void) {}
  93:Generated_Source\PSoC5/ErikaOS_common_ee_irqstub.inc **** __INLINE__ void  EE_std_disableIRQ_nested(void) {}
  94:Generated_Source\PSoC5/ErikaOS_common_ee_irqstub.inc **** #endif
  95:Generated_Source\PSoC5/ErikaOS_common_ee_irqstub.inc **** 
  96:Generated_Source\PSoC5/ErikaOS_common_ee_irqstub.inc **** #if (defined(__OO_BCC1__)) || (defined(__OO_BCC2__)) || (defined(__OO_ECC1__)) \
  97:Generated_Source\PSoC5/ErikaOS_common_ee_irqstub.inc ****   || (defined(__OO_ECC2__)) || (defined(__AS_SC4__))
  98:Generated_Source\PSoC5/ErikaOS_common_ee_irqstub.inc **** /* Function to be called at the end of a function service interrupt, to execute
  99:Generated_Source\PSoC5/ErikaOS_common_ee_irqstub.inc ****    clean-up specifiend in Autosar standard */
 100:Generated_Source\PSoC5/ErikaOS_common_ee_irqstub.inc **** __INLINE__ void  EE_std_end_IRQ_post_stub(void)
 101:Generated_Source\PSoC5/ErikaOS_common_ee_irqstub.inc **** {
 102:Generated_Source\PSoC5/ErikaOS_common_ee_irqstub.inc ****   EE_IRQ_end_post_stub();
 207              		.loc 3 102 0 discriminator 3
 208 006a FFF7FEFF 		bl	EE_IRQ_end_post_stub
 209              	.LVL16:
 210              	.LBE97:
 211              	.LBE96:
 212              	.LBB98:
 213              	.LBB99:
  84:Generated_Source\PSoC5/ErikaOS_common_ee_irqstub.inc **** __INLINE__ void  EE_increment_IRQ_nesting_level(void) { ++EE_IRQ_nesting_level; }
ARM GAS  C:\Users\zakis\AppData\Local\Temp\ccRC1vp1.s 			page 14


 214              		.loc 3 84 0 discriminator 3
 215 006e 094A     		ldr	r2, .L9+8
 216 0070 1368     		ldr	r3, [r2]
 217 0072 013B     		subs	r3, r3, #1
 218 0074 1360     		str	r3, [r2]
 219              	.LBE99:
 220              	.LBE98:
  33:source\asw/main.c **** {
 221              		.loc 1 33 0 discriminator 3
 222 0076 1BB9     		cbnz	r3, .L7
  33:source\asw/main.c **** {
 223              		.loc 1 33 0 is_stmt 0 discriminator 4
 224 0078 FFF7FEFF 		bl	EE_cortex_mx_change_IRQ_stack_back
 225              	.LVL17:
 226              	.LBB100:
 227              	.LBB101:
 228              		.file 4 "Generated_Source\\PSoC5/ErikaOS_cortex_mx_ee_irq_cng_cont.inc"
   1:Generated_Source\PSoC5/ErikaOS_cortex_mx_ee_irq_cng_cont.inc **** /* ###*B*###
   2:Generated_Source\PSoC5/ErikaOS_cortex_mx_ee_irq_cng_cont.inc ****  * ERIKA Enterprise - a tiny RTOS for small microcontrollers
   3:Generated_Source\PSoC5/ErikaOS_cortex_mx_ee_irq_cng_cont.inc ****  *
   4:Generated_Source\PSoC5/ErikaOS_cortex_mx_ee_irq_cng_cont.inc ****  * Copyright (C) 2002-2011  Evidence Srl
   5:Generated_Source\PSoC5/ErikaOS_cortex_mx_ee_irq_cng_cont.inc ****  *
   6:Generated_Source\PSoC5/ErikaOS_cortex_mx_ee_irq_cng_cont.inc ****  * This file is part of ERIKA Enterprise.
   7:Generated_Source\PSoC5/ErikaOS_cortex_mx_ee_irq_cng_cont.inc ****  *
   8:Generated_Source\PSoC5/ErikaOS_cortex_mx_ee_irq_cng_cont.inc ****  * ERIKA Enterprise is free software; you can redistribute it
   9:Generated_Source\PSoC5/ErikaOS_cortex_mx_ee_irq_cng_cont.inc ****  * and/or modify it under the terms of the GNU General Public License
  10:Generated_Source\PSoC5/ErikaOS_cortex_mx_ee_irq_cng_cont.inc ****  * version 2 as published by the Free Software Foundation, 
  11:Generated_Source\PSoC5/ErikaOS_cortex_mx_ee_irq_cng_cont.inc ****  * (with a special exception described below).
  12:Generated_Source\PSoC5/ErikaOS_cortex_mx_ee_irq_cng_cont.inc ****  *
  13:Generated_Source\PSoC5/ErikaOS_cortex_mx_ee_irq_cng_cont.inc ****  * Linking this code statically or dynamically with other modules is
  14:Generated_Source\PSoC5/ErikaOS_cortex_mx_ee_irq_cng_cont.inc ****  * making a combined work based on this code.  Thus, the terms and
  15:Generated_Source\PSoC5/ErikaOS_cortex_mx_ee_irq_cng_cont.inc ****  * conditions of the GNU General Public License cover the whole
  16:Generated_Source\PSoC5/ErikaOS_cortex_mx_ee_irq_cng_cont.inc ****  * combination.
  17:Generated_Source\PSoC5/ErikaOS_cortex_mx_ee_irq_cng_cont.inc ****  *
  18:Generated_Source\PSoC5/ErikaOS_cortex_mx_ee_irq_cng_cont.inc ****  * As a special exception, the copyright holders of this library give you
  19:Generated_Source\PSoC5/ErikaOS_cortex_mx_ee_irq_cng_cont.inc ****  * permission to link this code with independent modules to produce an
  20:Generated_Source\PSoC5/ErikaOS_cortex_mx_ee_irq_cng_cont.inc ****  * executable, regardless of the license terms of these independent
  21:Generated_Source\PSoC5/ErikaOS_cortex_mx_ee_irq_cng_cont.inc ****  * modules, and to copy and distribute the resulting executable under
  22:Generated_Source\PSoC5/ErikaOS_cortex_mx_ee_irq_cng_cont.inc ****  * terms of your choice, provided that you also meet, for each linked
  23:Generated_Source\PSoC5/ErikaOS_cortex_mx_ee_irq_cng_cont.inc ****  * independent module, the terms and conditions of the license of that
  24:Generated_Source\PSoC5/ErikaOS_cortex_mx_ee_irq_cng_cont.inc ****  * module.  An independent module is a module which is not derived from
  25:Generated_Source\PSoC5/ErikaOS_cortex_mx_ee_irq_cng_cont.inc ****  * or based on this library.  If you modify this code, you may extend
  26:Generated_Source\PSoC5/ErikaOS_cortex_mx_ee_irq_cng_cont.inc ****  * this exception to your version of the code, but you are not
  27:Generated_Source\PSoC5/ErikaOS_cortex_mx_ee_irq_cng_cont.inc ****  * obligated to do so.  If you do not wish to do so, delete this
  28:Generated_Source\PSoC5/ErikaOS_cortex_mx_ee_irq_cng_cont.inc ****  * exception statement from your version.
  29:Generated_Source\PSoC5/ErikaOS_cortex_mx_ee_irq_cng_cont.inc ****  *
  30:Generated_Source\PSoC5/ErikaOS_cortex_mx_ee_irq_cng_cont.inc ****  * ERIKA Enterprise is distributed in the hope that it will be
  31:Generated_Source\PSoC5/ErikaOS_cortex_mx_ee_irq_cng_cont.inc ****  * useful, but WITHOUT ANY WARRANTY; without even the implied warranty
  32:Generated_Source\PSoC5/ErikaOS_cortex_mx_ee_irq_cng_cont.inc ****  * of MERCHANTABILITY or FITNESS FOR A PARTICULAR PURPOSE.  See the
  33:Generated_Source\PSoC5/ErikaOS_cortex_mx_ee_irq_cng_cont.inc ****  * GNU General Public License version 2 for more details.
  34:Generated_Source\PSoC5/ErikaOS_cortex_mx_ee_irq_cng_cont.inc ****  *
  35:Generated_Source\PSoC5/ErikaOS_cortex_mx_ee_irq_cng_cont.inc ****  * You should have received a copy of the GNU General Public License
  36:Generated_Source\PSoC5/ErikaOS_cortex_mx_ee_irq_cng_cont.inc ****  * version 2 along with ERIKA Enterprise; if not, write to the
  37:Generated_Source\PSoC5/ErikaOS_cortex_mx_ee_irq_cng_cont.inc ****  * Free Software Foundation, Inc., 51 Franklin Street, Fifth Floor,
  38:Generated_Source\PSoC5/ErikaOS_cortex_mx_ee_irq_cng_cont.inc ****  * Boston, MA 02110-1301 USA.
  39:Generated_Source\PSoC5/ErikaOS_cortex_mx_ee_irq_cng_cont.inc ****  * ###*E*### */
  40:Generated_Source\PSoC5/ErikaOS_cortex_mx_ee_irq_cng_cont.inc **** 
ARM GAS  C:\Users\zakis\AppData\Local\Temp\ccRC1vp1.s 			page 15


  41:Generated_Source\PSoC5/ErikaOS_cortex_mx_ee_irq_cng_cont.inc ****  /** 
  42:Generated_Source\PSoC5/ErikaOS_cortex_mx_ee_irq_cng_cont.inc **** 	
  43:Generated_Source\PSoC5/ErikaOS_cortex_mx_ee_irq_cng_cont.inc **** 	@file	ee_irq_cng_cont.h
  44:Generated_Source\PSoC5/ErikaOS_cortex_mx_ee_irq_cng_cont.inc **** 	@brief	Function active the context change interrupt
  45:Generated_Source\PSoC5/ErikaOS_cortex_mx_ee_irq_cng_cont.inc **** 	@author	Gianluca Franchino
  46:Generated_Source\PSoC5/ErikaOS_cortex_mx_ee_irq_cng_cont.inc **** 	@author	Giuseppe Serano
  47:Generated_Source\PSoC5/ErikaOS_cortex_mx_ee_irq_cng_cont.inc **** 	@date	2012
  48:Generated_Source\PSoC5/ErikaOS_cortex_mx_ee_irq_cng_cont.inc **** */ 
  49:Generated_Source\PSoC5/ErikaOS_cortex_mx_ee_irq_cng_cont.inc ****     
  50:Generated_Source\PSoC5/ErikaOS_cortex_mx_ee_irq_cng_cont.inc **** /*
  51:Generated_Source\PSoC5/ErikaOS_cortex_mx_ee_irq_cng_cont.inc ****  * PSoC Port and API Generation
  52:Generated_Source\PSoC5/ErikaOS_cortex_mx_ee_irq_cng_cont.inc ****  * Carlos Fernando Meier Martinez
  53:Generated_Source\PSoC5/ErikaOS_cortex_mx_ee_irq_cng_cont.inc ****  * Hochschule Darmstadt, Germany. 2017.
  54:Generated_Source\PSoC5/ErikaOS_cortex_mx_ee_irq_cng_cont.inc ****  */
  55:Generated_Source\PSoC5/ErikaOS_cortex_mx_ee_irq_cng_cont.inc **** 
  56:Generated_Source\PSoC5/ErikaOS_cortex_mx_ee_irq_cng_cont.inc **** #ifndef __INCLUDE_CORTEX_MX_IRQ_CNG_CONTEXT_H__
  57:Generated_Source\PSoC5/ErikaOS_cortex_mx_ee_irq_cng_cont.inc **** #define __INCLUDE_CORTEX_MX_IRQ_CNG_CONTEXT_H__
  58:Generated_Source\PSoC5/ErikaOS_cortex_mx_ee_irq_cng_cont.inc **** 
  59:Generated_Source\PSoC5/ErikaOS_cortex_mx_ee_irq_cng_cont.inc **** #ifdef __GNU__
  60:Generated_Source\PSoC5/ErikaOS_cortex_mx_ee_irq_cng_cont.inc **** #include "ErikaOS_common_ee_compiler_gcc.inc"
  61:Generated_Source\PSoC5/ErikaOS_cortex_mx_ee_irq_cng_cont.inc **** #endif
  62:Generated_Source\PSoC5/ErikaOS_cortex_mx_ee_irq_cng_cont.inc **** 
  63:Generated_Source\PSoC5/ErikaOS_cortex_mx_ee_irq_cng_cont.inc **** /* Implemented in ee_<compiler>_change_context_isr.s */
  64:Generated_Source\PSoC5/ErikaOS_cortex_mx_ee_irq_cng_cont.inc **** extern void EE_switch_context(void);
  65:Generated_Source\PSoC5/ErikaOS_cortex_mx_ee_irq_cng_cont.inc **** 
  66:Generated_Source\PSoC5/ErikaOS_cortex_mx_ee_irq_cng_cont.inc **** __INLINE__ void  EE_cortex_mx_IRQ_active_change_context(void)
  67:Generated_Source\PSoC5/ErikaOS_cortex_mx_ee_irq_cng_cont.inc **** {
  68:Generated_Source\PSoC5/ErikaOS_cortex_mx_ee_irq_cng_cont.inc **** 	EE_switch_context();
 229              		.loc 4 68 0 is_stmt 1 discriminator 4
 230 007c FFF7FEFF 		bl	EE_switch_context
 231              	.LVL18:
 232              	.L7:
 233              	.LBE101:
 234              	.LBE100:
 235              	.LBB102:
 236              	.LBB103:
 191:Generated_Source\PSoC5/ErikaOS_cortex_mx_ee_cpu.inc **** #endif	/* !__KEIL__ */
 237              		.loc 2 191 0 discriminator 6
 238              		.syntax unified
 239              	@ 191 "Generated_Source\PSoC5/ErikaOS_cortex_mx_ee_cpu.inc" 1
 240 0080 62B6     		cpsie i
 241              	@ 0 "" 2
 242              		.thumb
 243              		.syntax unified
 244              	.LBE103:
 245              	.LBE102:
  33:source\asw/main.c **** {
 246              		.loc 1 33 0 discriminator 6
 247 0082 BDE81940 		pop	{r0, r3, r4, lr}
 248              		.cfi_restore 14
 249              		.cfi_restore 4
 250              		.cfi_restore 3
 251              		.cfi_restore 0
 252              		.cfi_def_cfa_offset 0
 253 0086 8546     		mov	sp, r0
 254 0088 7047     		bx	lr
 255              	.L10:
ARM GAS  C:\Users\zakis\AppData\Local\Temp\ccRC1vp1.s 			page 16


 256 008a 00BF     		.align	2
 257              	.L9:
 258 008c 04ED00E0 		.word	-536810236
 259 0090 20ED00E0 		.word	-536810208
 260 0094 00000000 		.word	EE_IRQ_nesting_level
 261              		.cfi_endproc
 262              	.LFE111:
 263              		.size	systick_handler, .-systick_handler
 264              		.section	.text.main,"ax",%progbits
 265              		.align	2
 266              		.global	main
 267              		.thumb
 268              		.thumb_func
 269              		.type	main, %function
 270              	main:
 271              	.LFB113:
  36:source\asw/main.c **** }
  37:source\asw/main.c **** 
  38:source\asw/main.c **** int main(void)
  39:source\asw/main.c **** {
 272              		.loc 1 39 0
 273              		.cfi_startproc
 274              		@ Volatile: function does not return.
 275              		@ args = 0, pretend = 0, frame = 0
 276              		@ frame_needed = 0, uses_anonymous_args = 0
 277 0000 08B5     		push	{r3, lr}
 278              		.cfi_def_cfa_offset 8
 279              		.cfi_offset 3, -8
 280              		.cfi_offset 14, -4
  40:source\asw/main.c ****     CyGlobalIntEnable; /* Enable global interrupts. */
 281              		.loc 1 40 0
 282              		.syntax unified
 283              	@ 40 "source\asw\main.c" 1
 284 0002 62B6     		CPSIE   i
 285              	@ 0 "" 2
 286              	.LVL19:
 287              		.thumb
 288              		.syntax unified
 289              	.LBB104:
 290              	.LBB105:
 291              		.file 5 "Generated_Source\\PSoC5/ErikaOS_cortex_mx_ee_systick.inc"
   1:Generated_Source\PSoC5/ErikaOS_cortex_mx_ee_systick.inc **** /* ###*B*###
   2:Generated_Source\PSoC5/ErikaOS_cortex_mx_ee_systick.inc ****  * ERIKA Enterprise - a tiny RTOS for small microcontrollers
   3:Generated_Source\PSoC5/ErikaOS_cortex_mx_ee_systick.inc ****  *
   4:Generated_Source\PSoC5/ErikaOS_cortex_mx_ee_systick.inc ****  * Copyright (C) 2002-2012  Evidence Srl
   5:Generated_Source\PSoC5/ErikaOS_cortex_mx_ee_systick.inc ****  *
   6:Generated_Source\PSoC5/ErikaOS_cortex_mx_ee_systick.inc ****  * This file is part of ERIKA Enterprise.
   7:Generated_Source\PSoC5/ErikaOS_cortex_mx_ee_systick.inc ****  *
   8:Generated_Source\PSoC5/ErikaOS_cortex_mx_ee_systick.inc ****  * ERIKA Enterprise is free software; you can redistribute it
   9:Generated_Source\PSoC5/ErikaOS_cortex_mx_ee_systick.inc ****  * and/or modify it under the terms of the GNU General Public License
  10:Generated_Source\PSoC5/ErikaOS_cortex_mx_ee_systick.inc ****  * version 2 as published by the Free Software Foundation,
  11:Generated_Source\PSoC5/ErikaOS_cortex_mx_ee_systick.inc ****  * (with a special exception described below).
  12:Generated_Source\PSoC5/ErikaOS_cortex_mx_ee_systick.inc ****  *
  13:Generated_Source\PSoC5/ErikaOS_cortex_mx_ee_systick.inc ****  * Linking this code statically or dynamically with other modules is
  14:Generated_Source\PSoC5/ErikaOS_cortex_mx_ee_systick.inc ****  * making a combined work based on this code.  Thus, the terms and
  15:Generated_Source\PSoC5/ErikaOS_cortex_mx_ee_systick.inc ****  * conditions of the GNU General Public License cover the whole
  16:Generated_Source\PSoC5/ErikaOS_cortex_mx_ee_systick.inc ****  * combination.
ARM GAS  C:\Users\zakis\AppData\Local\Temp\ccRC1vp1.s 			page 17


  17:Generated_Source\PSoC5/ErikaOS_cortex_mx_ee_systick.inc ****  *
  18:Generated_Source\PSoC5/ErikaOS_cortex_mx_ee_systick.inc ****  * As a special exception, the copyright holders of this library give you
  19:Generated_Source\PSoC5/ErikaOS_cortex_mx_ee_systick.inc ****  * permission to link this code with independent modules to produce an
  20:Generated_Source\PSoC5/ErikaOS_cortex_mx_ee_systick.inc ****  * executable, regardless of the license terms of these independent
  21:Generated_Source\PSoC5/ErikaOS_cortex_mx_ee_systick.inc ****  * modules, and to copy and distribute the resulting executable under
  22:Generated_Source\PSoC5/ErikaOS_cortex_mx_ee_systick.inc ****  * terms of your choice, provided that you also meet, for each linked
  23:Generated_Source\PSoC5/ErikaOS_cortex_mx_ee_systick.inc ****  * independent module, the terms and conditions of the license of that
  24:Generated_Source\PSoC5/ErikaOS_cortex_mx_ee_systick.inc ****  * module.  An independent module is a module which is not derived from
  25:Generated_Source\PSoC5/ErikaOS_cortex_mx_ee_systick.inc ****  * or based on this library.  If you modify this code, you may extend
  26:Generated_Source\PSoC5/ErikaOS_cortex_mx_ee_systick.inc ****  * this exception to your version of the code, but you are not
  27:Generated_Source\PSoC5/ErikaOS_cortex_mx_ee_systick.inc ****  * obligated to do so.  If you do not wish to do so, delete this
  28:Generated_Source\PSoC5/ErikaOS_cortex_mx_ee_systick.inc ****  * exception statement from your version.
  29:Generated_Source\PSoC5/ErikaOS_cortex_mx_ee_systick.inc ****  *
  30:Generated_Source\PSoC5/ErikaOS_cortex_mx_ee_systick.inc ****  * ERIKA Enterprise is distributed in the hope that it will be
  31:Generated_Source\PSoC5/ErikaOS_cortex_mx_ee_systick.inc ****  * useful, but WITHOUT ANY WARRANTY; without even the implied warranty
  32:Generated_Source\PSoC5/ErikaOS_cortex_mx_ee_systick.inc ****  * of MERCHANTABILITY or FITNESS FOR A PARTICULAR PURPOSE.  See the
  33:Generated_Source\PSoC5/ErikaOS_cortex_mx_ee_systick.inc ****  * GNU General Public License version 2 for more details.
  34:Generated_Source\PSoC5/ErikaOS_cortex_mx_ee_systick.inc ****  *
  35:Generated_Source\PSoC5/ErikaOS_cortex_mx_ee_systick.inc ****  * You should have received a copy of the GNU General Public License
  36:Generated_Source\PSoC5/ErikaOS_cortex_mx_ee_systick.inc ****  * version 2 along with ERIKA Enterprise; if not, write to the
  37:Generated_Source\PSoC5/ErikaOS_cortex_mx_ee_systick.inc ****  * Free Software Foundation, Inc., 51 Franklin Street, Fifth Floor,
  38:Generated_Source\PSoC5/ErikaOS_cortex_mx_ee_systick.inc ****  * Boston, MA 02110-1301 USA.
  39:Generated_Source\PSoC5/ErikaOS_cortex_mx_ee_systick.inc ****  * ###*E*### */
  40:Generated_Source\PSoC5/ErikaOS_cortex_mx_ee_systick.inc **** 
  41:Generated_Source\PSoC5/ErikaOS_cortex_mx_ee_systick.inc **** /**
  42:Generated_Source\PSoC5/ErikaOS_cortex_mx_ee_systick.inc ****     @file	ee_systick.h
  43:Generated_Source\PSoC5/ErikaOS_cortex_mx_ee_systick.inc ****     @brief	SysTick system timer driver header file.
  44:Generated_Source\PSoC5/ErikaOS_cortex_mx_ee_systick.inc ****     @author	Giuseppe Serano
  45:Generated_Source\PSoC5/ErikaOS_cortex_mx_ee_systick.inc ****     @date	2012
  46:Generated_Source\PSoC5/ErikaOS_cortex_mx_ee_systick.inc **** 
  47:Generated_Source\PSoC5/ErikaOS_cortex_mx_ee_systick.inc **** **/
  48:Generated_Source\PSoC5/ErikaOS_cortex_mx_ee_systick.inc **** 
  49:Generated_Source\PSoC5/ErikaOS_cortex_mx_ee_systick.inc **** /*
  50:Generated_Source\PSoC5/ErikaOS_cortex_mx_ee_systick.inc ****  * PSoC Port and API Generation
  51:Generated_Source\PSoC5/ErikaOS_cortex_mx_ee_systick.inc ****  * Carlos Fernando Meier Martinez
  52:Generated_Source\PSoC5/ErikaOS_cortex_mx_ee_systick.inc ****  * Hochschule Darmstadt, Germany. 2017.
  53:Generated_Source\PSoC5/ErikaOS_cortex_mx_ee_systick.inc ****  */
  54:Generated_Source\PSoC5/ErikaOS_cortex_mx_ee_systick.inc **** 
  55:Generated_Source\PSoC5/ErikaOS_cortex_mx_ee_systick.inc **** #ifndef	__INCLUDE_CORTEX_MX_SYSTICK_H__
  56:Generated_Source\PSoC5/ErikaOS_cortex_mx_ee_systick.inc **** #define	__INCLUDE_CORTEX_MX_SYSTICK_H__
  57:Generated_Source\PSoC5/ErikaOS_cortex_mx_ee_systick.inc **** 
  58:Generated_Source\PSoC5/ErikaOS_cortex_mx_ee_systick.inc **** #ifdef	__USE_SYSTICK__
  59:Generated_Source\PSoC5/ErikaOS_cortex_mx_ee_systick.inc **** 
  60:Generated_Source\PSoC5/ErikaOS_cortex_mx_ee_systick.inc **** /** error value. No errors happened **/
  61:Generated_Source\PSoC5/ErikaOS_cortex_mx_ee_systick.inc **** #define	EE_SYSTICK_NO_ERRORS	0
  62:Generated_Source\PSoC5/ErikaOS_cortex_mx_ee_systick.inc **** /** error value. Wrong funtion arguments values **/
  63:Generated_Source\PSoC5/ErikaOS_cortex_mx_ee_systick.inc **** #define	EE_SYSTICK_ERR_BAD_ARGS	1
  64:Generated_Source\PSoC5/ErikaOS_cortex_mx_ee_systick.inc **** 
  65:Generated_Source\PSoC5/ErikaOS_cortex_mx_ee_systick.inc **** /**
  66:Generated_Source\PSoC5/ErikaOS_cortex_mx_ee_systick.inc ****     @brief Start SysTick.
  67:Generated_Source\PSoC5/ErikaOS_cortex_mx_ee_systick.inc **** 
  68:Generated_Source\PSoC5/ErikaOS_cortex_mx_ee_systick.inc ****     This will start the SysTick counter.  If an ISR has been defined, it is
  69:Generated_Source\PSoC5/ErikaOS_cortex_mx_ee_systick.inc ****     called when the SysTick counter rolls over.
  70:Generated_Source\PSoC5/ErikaOS_cortex_mx_ee_systick.inc **** 
  71:Generated_Source\PSoC5/ErikaOS_cortex_mx_ee_systick.inc ****     @note Calling this function will cause the SysTick counter to (re)commence
  72:Generated_Source\PSoC5/ErikaOS_cortex_mx_ee_systick.inc ****     counting from its current value.  The counter is not automatically reloaded
  73:Generated_Source\PSoC5/ErikaOS_cortex_mx_ee_systick.inc ****     with the period as specified in a previous call to EE_systick_set_period().
ARM GAS  C:\Users\zakis\AppData\Local\Temp\ccRC1vp1.s 			page 18


  74:Generated_Source\PSoC5/ErikaOS_cortex_mx_ee_systick.inc ****     If an immediate reload is required, the \b NVIC_ST_CURRENT register must be
  75:Generated_Source\PSoC5/ErikaOS_cortex_mx_ee_systick.inc ****     written to force this.  Any write to this register clears the SysTick
  76:Generated_Source\PSoC5/ErikaOS_cortex_mx_ee_systick.inc ****     counter to 0 and will cause a reload with the supplied period on the next
  77:Generated_Source\PSoC5/ErikaOS_cortex_mx_ee_systick.inc ****     clock.
  78:Generated_Source\PSoC5/ErikaOS_cortex_mx_ee_systick.inc ****  */
  79:Generated_Source\PSoC5/ErikaOS_cortex_mx_ee_systick.inc **** __INLINE__ void  EE_systick_start(void)
  80:Generated_Source\PSoC5/ErikaOS_cortex_mx_ee_systick.inc **** {
  81:Generated_Source\PSoC5/ErikaOS_cortex_mx_ee_systick.inc ****   NVIC_ST_CTRL_R |= NVIC_ST_CTRL_CLK_SRC | NVIC_ST_CTRL_ENABLE;
  82:Generated_Source\PSoC5/ErikaOS_cortex_mx_ee_systick.inc **** }
  83:Generated_Source\PSoC5/ErikaOS_cortex_mx_ee_systick.inc **** 
  84:Generated_Source\PSoC5/ErikaOS_cortex_mx_ee_systick.inc **** /**
  85:Generated_Source\PSoC5/ErikaOS_cortex_mx_ee_systick.inc ****     @brief Stop SysTick.
  86:Generated_Source\PSoC5/ErikaOS_cortex_mx_ee_systick.inc **** 
  87:Generated_Source\PSoC5/ErikaOS_cortex_mx_ee_systick.inc ****     This will stop the SysTick counter.  If an ISR has been defined, it will
  88:Generated_Source\PSoC5/ErikaOS_cortex_mx_ee_systick.inc ****     no longer be called until SysTick is restarted.
  89:Generated_Source\PSoC5/ErikaOS_cortex_mx_ee_systick.inc **** */
  90:Generated_Source\PSoC5/ErikaOS_cortex_mx_ee_systick.inc **** __INLINE__ void  EE_systick_stop(void)
  91:Generated_Source\PSoC5/ErikaOS_cortex_mx_ee_systick.inc **** {
  92:Generated_Source\PSoC5/ErikaOS_cortex_mx_ee_systick.inc ****   NVIC_ST_CTRL_R &= ~(NVIC_ST_CTRL_ENABLE);
  93:Generated_Source\PSoC5/ErikaOS_cortex_mx_ee_systick.inc **** }
  94:Generated_Source\PSoC5/ErikaOS_cortex_mx_ee_systick.inc **** 
  95:Generated_Source\PSoC5/ErikaOS_cortex_mx_ee_systick.inc **** /**
  96:Generated_Source\PSoC5/ErikaOS_cortex_mx_ee_systick.inc ****     @brief Enables the SysTick interrupt.
  97:Generated_Source\PSoC5/ErikaOS_cortex_mx_ee_systick.inc **** 
  98:Generated_Source\PSoC5/ErikaOS_cortex_mx_ee_systick.inc ****     This function will enable the SysTick interrupt, allowing it to be
  99:Generated_Source\PSoC5/ErikaOS_cortex_mx_ee_systick.inc ****     reflected to the processor.
 100:Generated_Source\PSoC5/ErikaOS_cortex_mx_ee_systick.inc **** 
 101:Generated_Source\PSoC5/ErikaOS_cortex_mx_ee_systick.inc ****     @note The SysTick ISR does not need to clear the SysTick interrupt source as
 102:Generated_Source\PSoC5/ErikaOS_cortex_mx_ee_systick.inc ****     this is done automatically by NVIC when the interrupt ISR is called.
 103:Generated_Source\PSoC5/ErikaOS_cortex_mx_ee_systick.inc ****  */
 104:Generated_Source\PSoC5/ErikaOS_cortex_mx_ee_systick.inc **** __INLINE__ void  EE_systick_enable_int()
 105:Generated_Source\PSoC5/ErikaOS_cortex_mx_ee_systick.inc **** {
 106:Generated_Source\PSoC5/ErikaOS_cortex_mx_ee_systick.inc ****   NVIC_ST_CTRL_R |= NVIC_ST_CTRL_INTEN;
 107:Generated_Source\PSoC5/ErikaOS_cortex_mx_ee_systick.inc **** }
 108:Generated_Source\PSoC5/ErikaOS_cortex_mx_ee_systick.inc **** 
 109:Generated_Source\PSoC5/ErikaOS_cortex_mx_ee_systick.inc **** /**
 110:Generated_Source\PSoC5/ErikaOS_cortex_mx_ee_systick.inc ****     @brief Disables the SysTick interrupt.
 111:Generated_Source\PSoC5/ErikaOS_cortex_mx_ee_systick.inc **** 
 112:Generated_Source\PSoC5/ErikaOS_cortex_mx_ee_systick.inc ****     This function will disable the SysTick interrupt, preventing it from being
 113:Generated_Source\PSoC5/ErikaOS_cortex_mx_ee_systick.inc ****     reflected to the processor.
 114:Generated_Source\PSoC5/ErikaOS_cortex_mx_ee_systick.inc ****  */
 115:Generated_Source\PSoC5/ErikaOS_cortex_mx_ee_systick.inc **** __INLINE__ void  EE_systick_disable_int()
 116:Generated_Source\PSoC5/ErikaOS_cortex_mx_ee_systick.inc **** {
 117:Generated_Source\PSoC5/ErikaOS_cortex_mx_ee_systick.inc ****   NVIC_ST_CTRL_R &= ~(NVIC_ST_CTRL_INTEN);
 118:Generated_Source\PSoC5/ErikaOS_cortex_mx_ee_systick.inc **** }
 119:Generated_Source\PSoC5/ErikaOS_cortex_mx_ee_systick.inc **** 
 120:Generated_Source\PSoC5/ErikaOS_cortex_mx_ee_systick.inc **** /**
 121:Generated_Source\PSoC5/ErikaOS_cortex_mx_ee_systick.inc ****     @brief Sets the period of the SysTick counter.
 122:Generated_Source\PSoC5/ErikaOS_cortex_mx_ee_systick.inc **** 
 123:Generated_Source\PSoC5/ErikaOS_cortex_mx_ee_systick.inc ****     @param period is the number of clock ticks in each period of the SysTick
 124:Generated_Source\PSoC5/ErikaOS_cortex_mx_ee_systick.inc ****     counter; must be between 1 and 16,777,216, inclusive. If the \e period is
 125:Generated_Source\PSoC5/ErikaOS_cortex_mx_ee_systick.inc ****     out of range the function returns \b EE_SYSTICK_ERR_BAD_ARGS, else it will
 126:Generated_Source\PSoC5/ErikaOS_cortex_mx_ee_systick.inc ****     returns \b EE_SYSTICK_NO_ERRORS.
 127:Generated_Source\PSoC5/ErikaOS_cortex_mx_ee_systick.inc **** 
 128:Generated_Source\PSoC5/ErikaOS_cortex_mx_ee_systick.inc ****     This function sets the rate at which the SysTick counter wraps; this
 129:Generated_Source\PSoC5/ErikaOS_cortex_mx_ee_systick.inc ****     equates to the number of processor clocks between interrupts.
 130:Generated_Source\PSoC5/ErikaOS_cortex_mx_ee_systick.inc **** 
ARM GAS  C:\Users\zakis\AppData\Local\Temp\ccRC1vp1.s 			page 19


 131:Generated_Source\PSoC5/ErikaOS_cortex_mx_ee_systick.inc ****     @note Calling this function does not cause the SysTick counter to reload
 132:Generated_Source\PSoC5/ErikaOS_cortex_mx_ee_systick.inc ****     immediately.  If an immediate reload is required, the \b NVIC_ST_CURRENT
 133:Generated_Source\PSoC5/ErikaOS_cortex_mx_ee_systick.inc ****     register must be written.  Any write to this register clears the SysTick
 134:Generated_Source\PSoC5/ErikaOS_cortex_mx_ee_systick.inc ****     counter to 0 and will cause a reload with the \e period supplied here on
 135:Generated_Source\PSoC5/ErikaOS_cortex_mx_ee_systick.inc ****     the next clock after the SysTick is enabled.
 136:Generated_Source\PSoC5/ErikaOS_cortex_mx_ee_systick.inc ****  */
 137:Generated_Source\PSoC5/ErikaOS_cortex_mx_ee_systick.inc **** __INLINE__ EE_UREG  EE_systick_set_period(EE_UREG period)
 138:Generated_Source\PSoC5/ErikaOS_cortex_mx_ee_systick.inc **** {
 139:Generated_Source\PSoC5/ErikaOS_cortex_mx_ee_systick.inc ****   if ((period == NVIC_ST_RELOAD_S) || (period > NVIC_ST_RELOAD_M))
 140:Generated_Source\PSoC5/ErikaOS_cortex_mx_ee_systick.inc ****     return EE_SYSTICK_ERR_BAD_ARGS;
 141:Generated_Source\PSoC5/ErikaOS_cortex_mx_ee_systick.inc **** 
 142:Generated_Source\PSoC5/ErikaOS_cortex_mx_ee_systick.inc ****   NVIC_ST_RELOAD_R = period - 1;
 292              		.loc 5 142 0
 293 0004 45F6BF52 		movw	r2, #23999
 294 0008 054B     		ldr	r3, .L14
 295 000a 1A60     		str	r2, [r3]
 296              	.LVL20:
 297              	.LBE105:
 298              	.LBE104:
 299              	.LBB106:
 300              	.LBB107:
 106:Generated_Source\PSoC5/ErikaOS_cortex_mx_ee_systick.inc **** }
 301              		.loc 5 106 0
 302 000c 054A     		ldr	r2, .L14+4
 303 000e 1368     		ldr	r3, [r2]
 304 0010 43F00203 		orr	r3, r3, #2
 305 0014 1360     		str	r3, [r2]
 306              	.L12:
 307              	.LBE107:
 308              	.LBE106:
  41:source\asw/main.c ****     
  42:source\asw/main.c ****     
  43:source\asw/main.c ****     //Set systick period to 1 ms. Enable the INT and start it.
  44:source\asw/main.c ****     EE_systick_set_period(MILLISECONDS_TO_TICKS(1, BCLK__BUS_CLK__HZ));
  45:source\asw/main.c ****     EE_systick_enable_int();
  46:source\asw/main.c **** 
  47:source\asw/main.c **** 
  48:source\asw/main.c **** 
  49:source\asw/main.c ****     for(;;)
  50:source\asw/main.c ****     {
  51:source\asw/main.c ****         StartOS(OSDEFAULTAPPMODE);
 309              		.loc 1 51 0 discriminator 1
 310 0016 0020     		movs	r0, #0
 311 0018 FFF7FEFF 		bl	EE_oo_StartOS
 312              	.LVL21:
 313 001c FBE7     		b	.L12
 314              	.L15:
 315 001e 00BF     		.align	2
 316              	.L14:
 317 0020 14E000E0 		.word	-536813548
 318 0024 10E000E0 		.word	-536813552
 319              		.cfi_endproc
 320              	.LFE113:
 321              		.size	main, .-main
 322              		.section	.text.Functsk_auto,"ax",%progbits
 323              		.align	2
 324              		.global	Functsk_auto
ARM GAS  C:\Users\zakis\AppData\Local\Temp\ccRC1vp1.s 			page 20


 325              		.thumb
 326              		.thumb_func
 327              		.type	Functsk_auto, %function
 328              	Functsk_auto:
 329              	.LFB114:
  52:source\asw/main.c **** 
  53:source\asw/main.c ****     }
  54:source\asw/main.c **** }
  55:source\asw/main.c **** 
  56:source\asw/main.c **** TASK(tsk_auto){
 330              		.loc 1 56 0
 331              		.cfi_startproc
 332              		@ args = 0, pretend = 0, frame = 0
 333              		@ frame_needed = 0, uses_anonymous_args = 0
 334 0000 08B5     		push	{r3, lr}
 335              		.cfi_def_cfa_offset 8
 336              		.cfi_offset 3, -8
 337              		.cfi_offset 14, -4
  57:source\asw/main.c ****     
  58:source\asw/main.c ****     /* Initialise components */
  59:source\asw/main.c **** 
  60:source\asw/main.c ****     UART_init(&UART_port);
 338              		.loc 1 60 0
 339 0002 0F48     		ldr	r0, .L18
 340 0004 FFF7FEFF 		bl	UART_init
 341              	.LVL22:
  61:source\asw/main.c ****     EVENT_init(&parsingEventHandler);
 342              		.loc 1 61 0
 343 0008 0E48     		ldr	r0, .L18+4
 344 000a FFF7FEFF 		bl	EVENT_init
 345              	.LVL23:
  62:source\asw/main.c ****     EVENT_init(&drawingEventHandler);
 346              		.loc 1 62 0
 347 000e 0E48     		ldr	r0, .L18+8
 348 0010 FFF7FEFF 		bl	EVENT_init
 349              	.LVL24:
  63:source\asw/main.c ****     PARSER_init(&jsonParser);
 350              		.loc 1 63 0
 351 0014 0D48     		ldr	r0, .L18+12
 352 0016 FFF7FEFF 		bl	PARSER_init
 353              	.LVL25:
  64:source\asw/main.c ****     DRAWER_init (&drawer);
 354              		.loc 1 64 0
 355 001a 0D48     		ldr	r0, .L18+16
 356 001c FFF7FEFF 		bl	DRAWER_init
 357              	.LVL26:
  65:source\asw/main.c ****         
  66:source\asw/main.c ****         
  67:source\asw/main.c ****     /* Reconfigure ISRs with OS parameters.
  68:source\asw/main.c ****      * This line MUST be called after the hardware driver initialization!
  69:source\asw/main.c ****      */
  70:source\asw/main.c ****     EE_system_init();
 358              		.loc 1 70 0
 359 0020 FFF7FEFF 		bl	EE_system_init
 360              	.LVL27:
 361              	.LBB108:
 362              	.LBB109:
ARM GAS  C:\Users\zakis\AppData\Local\Temp\ccRC1vp1.s 			page 21


  81:Generated_Source\PSoC5/ErikaOS_cortex_mx_ee_systick.inc **** }
 363              		.loc 5 81 0
 364 0024 0B4A     		ldr	r2, .L18+20
 365 0026 1368     		ldr	r3, [r2]
 366 0028 43F00503 		orr	r3, r3, #5
 367 002c 1360     		str	r3, [r2]
 368              	.LBE109:
 369              	.LBE108:
  71:source\asw/main.c ****     
  72:source\asw/main.c ****     /* Must be started after interrupt reconfiguration */
  73:source\asw/main.c ****     EE_systick_start();
  74:source\asw/main.c ****     
  75:source\asw/main.c ****     /* Activate tasks*/
  76:source\asw/main.c ****     ActivateTask(tsk_handleEvents);
 370              		.loc 1 76 0
 371 002e 0220     		movs	r0, #2
 372 0030 FFF7FEFF 		bl	EE_oo_ActivateTask
 373              	.LVL28:
  77:source\asw/main.c ****     ActivateTask(tsk_background);
 374              		.loc 1 77 0
 375 0034 0120     		movs	r0, #1
 376 0036 FFF7FEFF 		bl	EE_oo_ActivateTask
 377              	.LVL29:
  78:source\asw/main.c ****     
  79:source\asw/main.c ****     /* Terminate this task after initialization */
  80:source\asw/main.c ****     TerminateTask();
 378              		.loc 1 80 0
 379 003a FFF7FEFF 		bl	EE_oo_TerminateTask
 380              	.LVL30:
 381 003e 08BD     		pop	{r3, pc}
 382              	.L19:
 383              		.align	2
 384              	.L18:
 385 0040 00000000 		.word	UART_port
 386 0044 00000000 		.word	parsingEventHandler
 387 0048 00000000 		.word	drawingEventHandler
 388 004c 00000000 		.word	jsonParser
 389 0050 00000000 		.word	drawer
 390 0054 10E000E0 		.word	-536813552
 391              		.cfi_endproc
 392              	.LFE114:
 393              		.size	Functsk_auto, .-Functsk_auto
 394              		.section	.text.Functsk_background,"ax",%progbits
 395              		.align	2
 396              		.global	Functsk_background
 397              		.thumb
 398              		.thumb_func
 399              		.type	Functsk_background, %function
 400              	Functsk_background:
 401              	.LFB115:
  81:source\asw/main.c **** }
  82:source\asw/main.c **** 
  83:source\asw/main.c **** TASK(tsk_background){
 402              		.loc 1 83 0
 403              		.cfi_startproc
 404              		@ Volatile: function does not return.
 405              		@ args = 0, pretend = 0, frame = 0
ARM GAS  C:\Users\zakis\AppData\Local\Temp\ccRC1vp1.s 			page 22


 406              		@ frame_needed = 0, uses_anonymous_args = 0
 407              		@ link register save eliminated.
 408              	.L21:
 409 0000 FEE7     		b	.L21
 410              		.cfi_endproc
 411              	.LFE115:
 412              		.size	Functsk_background, .-Functsk_background
 413 0002 00BF     		.section	.text.Functsk_handleEvents,"ax",%progbits
 414              		.align	2
 415              		.global	Functsk_handleEvents
 416              		.thumb
 417              		.thumb_func
 418              		.type	Functsk_handleEvents, %function
 419              	Functsk_handleEvents:
 420              	.LFB116:
  84:source\asw/main.c ****     
  85:source\asw/main.c ****     while (1){}
  86:source\asw/main.c ****     TerminateTask();
  87:source\asw/main.c **** }
  88:source\asw/main.c **** 
  89:source\asw/main.c **** TASK(tsk_handleEvents){
 421              		.loc 1 89 0
 422              		.cfi_startproc
 423              		@ args = 0, pretend = 0, frame = 376
 424              		@ frame_needed = 0, uses_anonymous_args = 0
 425              		.loc 1 89 0
 426 0000 10B5     		push	{r4, lr}
 427              		.cfi_def_cfa_offset 8
 428              		.cfi_offset 4, -8
 429              		.cfi_offset 14, -4
 430 0002 DEB0     		sub	sp, sp, #376
 431              		.cfi_def_cfa_offset 384
  90:source\asw/main.c ****     
  91:source\asw/main.c ****     EventMaskType ev = 0;
 432              		.loc 1 91 0
 433 0004 0023     		movs	r3, #0
 434 0006 5D93     		str	r3, [sp, #372]
 435              	.L23:
  92:source\asw/main.c ****     uint8_t jsonStringBuffer[MAX_JSON_STRING_LENGTH];
  93:source\asw/main.c ****     
  94:source\asw/main.c ****     while (1){
  95:source\asw/main.c ****         WaitEvent(ev_centralEvent);
 436              		.loc 1 95 0
 437 0008 0120     		movs	r0, #1
 438 000a FFF7FEFF 		bl	EE_oo_WaitEvent
 439              	.LVL31:
  96:source\asw/main.c ****         GetEvent(tsk_handleEvents, &ev);
 440              		.loc 1 96 0
 441 000e 5DA9     		add	r1, sp, #372
 442 0010 0220     		movs	r0, #2
 443 0012 FFF7FEFF 		bl	EE_oo_GetEvent
 444              	.LVL32:
  97:source\asw/main.c ****         ClearEvent(ev); 
 445              		.loc 1 97 0
 446 0016 5D98     		ldr	r0, [sp, #372]
 447 0018 FFF7FEFF 		bl	EE_oo_ClearEvent
 448              	.LVL33:
ARM GAS  C:\Users\zakis\AppData\Local\Temp\ccRC1vp1.s 			page 23


  98:source\asw/main.c ****    
  99:source\asw/main.c ****         if (ev & ev_centralEvent){
 449              		.loc 1 99 0
 450 001c 5D9B     		ldr	r3, [sp, #372]
 451 001e 13F0010F 		tst	r3, #1
 452 0022 F1D0     		beq	.L23
 453              	.LBB110:
 100:source\asw/main.c ****             eEvent_t event;
 101:source\asw/main.c ****             /* Read events from the buffer for parsing JSON. */  
 102:source\asw/main.c ****             if (EVENT_read(&parsingEventHandler, &event) == RC_SUCCESS){
 454              		.loc 1 102 0
 455 0024 0DF10701 		add	r1, sp, #7
 456 0028 3648     		ldr	r0, .L35
 457 002a FFF7FEFF 		bl	EVENT_read
 458              	.LVL34:
 459 002e 0028     		cmp	r0, #0
 460 0030 41D1     		bne	.L24
 103:source\asw/main.c ****                 if (event == ev_uartError){
 461              		.loc 1 103 0
 462 0032 9DF90730 		ldrsb	r3, [sp, #7]
 463 0036 022B     		cmp	r3, #2
 464 0038 10D1     		bne	.L25
 104:source\asw/main.c ****                     /* Handle error in case of buffer overflow */  
 105:source\asw/main.c ****                     EVENT_clear(&parsingEventHandler);
 465              		.loc 1 105 0
 466 003a 3248     		ldr	r0, .L35
 467 003c FFF7FEFF 		bl	EVENT_clear
 468              	.LVL35:
 106:source\asw/main.c ****                     EVENT_clear(&drawingEventHandler);
 469              		.loc 1 106 0
 470 0040 3148     		ldr	r0, .L35+4
 471 0042 FFF7FEFF 		bl	EVENT_clear
 472              	.LVL36:
 107:source\asw/main.c ****                     DRAWER_init(&drawer);
 473              		.loc 1 107 0
 474 0046 3148     		ldr	r0, .L35+8
 475 0048 FFF7FEFF 		bl	DRAWER_init
 476              	.LVL37:
 108:source\asw/main.c ****                     UART_putString("System Overload. Resetting peripherals\n");
 477              		.loc 1 108 0
 478 004c 3048     		ldr	r0, .L35+12
 479 004e FFF7FEFF 		bl	UART_LOG_PutString
 480              	.LVL38:
 109:source\asw/main.c ****                     SetEvent(tsk_handleEvents, ev_centralEvent);
 481              		.loc 1 109 0
 482 0052 0121     		movs	r1, #1
 483 0054 0220     		movs	r0, #2
 484 0056 FFF7FEFF 		bl	EE_oo_SetEvent
 485              	.LVL39:
 486 005a D5E7     		b	.L23
 487              	.L25:
 110:source\asw/main.c ****                 }
 111:source\asw/main.c ****                 else if (event == ev_parseJSON){
 488              		.loc 1 111 0
 489 005c 002B     		cmp	r3, #0
 490 005e D3D1     		bne	.L23
 491              	.LBB111:
ARM GAS  C:\Users\zakis\AppData\Local\Temp\ccRC1vp1.s 			page 24


 112:source\asw/main.c **** 
 113:source\asw/main.c ****                     /* CRITICAL SECTION:
 114:source\asw/main.c ****                     * Reads data from the buffer that stores elements received on UART.
 115:source\asw/main.c ****                     * Resourse is occupied because reading takes place in multiple clock cycles;
 116:source\asw/main.c ****                     * if new data is received on UART while the buffer is being read,
 117:source\asw/main.c ****                     * handling the UART interrupt before read action is completed may curropt the m
 118:source\asw/main.c ****                     */  
 119:source\asw/main.c ****                     GetResource(res_buffer);
 492              		.loc 1 119 0
 493 0060 0020     		movs	r0, #0
 494 0062 FFF7FEFF 		bl	EE_oo_GetResource
 495              	.LVL40:
 120:source\asw/main.c ****                     RC_t result = UART_getJsonString(&UART_port, jsonStringBuffer);
 496              		.loc 1 120 0
 497 0066 2BA9     		add	r1, sp, #172
 498 0068 2A48     		ldr	r0, .L35+16
 499 006a FFF7FEFF 		bl	UART_getJsonString
 500              	.LVL41:
 501 006e 0446     		mov	r4, r0
 502              	.LVL42:
 121:source\asw/main.c ****                     ReleaseResource(res_buffer);
 503              		.loc 1 121 0
 504 0070 0020     		movs	r0, #0
 505 0072 FFF7FEFF 		bl	EE_oo_ReleaseResource
 506              	.LVL43:
 122:source\asw/main.c ****                     
 123:source\asw/main.c ****                     if (result == RC_SUCCESS){   
 507              		.loc 1 123 0
 508 0076 CCB9     		cbnz	r4, .L27
 124:source\asw/main.c ****                         /* Parse the JSON string and trigger the event that draws on TFT display */
 125:source\asw/main.c ****                         PARSER_setJsonString(&jsonParser, jsonStringBuffer);
 509              		.loc 1 125 0
 510 0078 274C     		ldr	r4, .L35+20
 511              	.LVL44:
 512 007a 2BA9     		add	r1, sp, #172
 513 007c 2046     		mov	r0, r4
 514 007e FFF7FEFF 		bl	PARSER_setJsonString
 515              	.LVL45:
 126:source\asw/main.c ****                         if (PARSER_parseJSON(&jsonParser) == RC_SUCCESS){
 516              		.loc 1 126 0
 517 0082 2046     		mov	r0, r4
 518 0084 FFF7FEFF 		bl	PARSER_parseJSON
 519              	.LVL46:
 520 0088 68B9     		cbnz	r0, .L28
 127:source\asw/main.c ****                             if (DRAWER_getDrawingInstructions(&drawer, &jsonParser)== RC_SUCCESS){
 521              		.loc 1 127 0
 522 008a 2146     		mov	r1, r4
 523 008c 1F48     		ldr	r0, .L35+8
 524 008e FFF7FEFF 		bl	DRAWER_getDrawingInstructions
 525              	.LVL47:
 526 0092 20B9     		cbnz	r0, .L29
 128:source\asw/main.c ****                                 EVENT_add(&drawingEventHandler, ev_drawOnTFT);                     
 527              		.loc 1 128 0
 528 0094 0121     		movs	r1, #1
 529 0096 1C48     		ldr	r0, .L35+4
 530 0098 FFF7FEFF 		bl	EVENT_add
 531              	.LVL48:
ARM GAS  C:\Users\zakis\AppData\Local\Temp\ccRC1vp1.s 			page 25


 532 009c 06E0     		b	.L27
 533              	.L29:
 129:source\asw/main.c ****                             } else {
 130:source\asw/main.c ****                                  UART_putString("Invalid coordinates\n");                          
 534              		.loc 1 130 0
 535 009e 1F48     		ldr	r0, .L35+24
 536 00a0 FFF7FEFF 		bl	UART_LOG_PutString
 537              	.LVL49:
 538 00a4 02E0     		b	.L27
 539              	.L28:
 131:source\asw/main.c ****                             }
 132:source\asw/main.c ****                         } else {
 133:source\asw/main.c ****                         UART_putString("Invalid JSON packet\n");                        
 540              		.loc 1 133 0
 541 00a6 1E48     		ldr	r0, .L35+28
 542 00a8 FFF7FEFF 		bl	UART_LOG_PutString
 543              	.LVL50:
 544              	.L27:
 134:source\asw/main.c ****                         } 
 135:source\asw/main.c ****                     }
 136:source\asw/main.c ****                     SetEvent(tsk_handleEvents, ev_centralEvent);
 545              		.loc 1 136 0
 546 00ac 0121     		movs	r1, #1
 547 00ae 0220     		movs	r0, #2
 548 00b0 FFF7FEFF 		bl	EE_oo_SetEvent
 549              	.LVL51:
 550 00b4 A8E7     		b	.L23
 551              	.L24:
 552              	.LBE111:
 137:source\asw/main.c ****                 } 
 138:source\asw/main.c ****             }
 139:source\asw/main.c ****             else {
 140:source\asw/main.c ****                 /* Read events from the buffer for drawing on TFT. */
 141:source\asw/main.c ****                 if (EVENT_read(&drawingEventHandler, &event) == RC_SUCCESS){
 553              		.loc 1 141 0
 554 00b6 0DF10701 		add	r1, sp, #7
 555 00ba 1348     		ldr	r0, .L35+4
 556 00bc FFF7FEFF 		bl	EVENT_read
 557              	.LVL52:
 558 00c0 0028     		cmp	r0, #0
 559 00c2 A1D1     		bne	.L23
 142:source\asw/main.c ****                     if (event == ev_drawOnTFT){
 560              		.loc 1 142 0
 561 00c4 9DF90730 		ldrsb	r3, [sp, #7]
 562 00c8 012B     		cmp	r3, #1
 563 00ca 16D1     		bne	.L30
 564              	.LBB112:
 143:source\asw/main.c ****                         DrawingInstr_t instr;
 144:source\asw/main.c ****                         
 145:source\asw/main.c ****                         /* CRITICAL SECTION:
 146:source\asw/main.c ****                         * Reads data from the buffer that stores drawing instructions
 147:source\asw/main.c ****                         * Resourse is occupied because reading takes place in multiple clock cycles
 148:source\asw/main.c ****                         * if new instruction is ready to be written to the buffer while the read op
 149:source\asw/main.c ****                         * executing the write operation before reading is completed may curropt the
 150:source\asw/main.c ****                         */ 
 151:source\asw/main.c ****                         GetResource(res_drawingBuffer);
 565              		.loc 1 151 0
ARM GAS  C:\Users\zakis\AppData\Local\Temp\ccRC1vp1.s 			page 26


 566 00cc 0120     		movs	r0, #1
 567 00ce FFF7FEFF 		bl	EE_oo_GetResource
 568              	.LVL53:
 152:source\asw/main.c ****                         RC_t result = DRAWER_readInstruction(&drawer, &instr);
 569              		.loc 1 152 0
 570 00d2 02A9     		add	r1, sp, #8
 571 00d4 0D48     		ldr	r0, .L35+8
 572 00d6 FFF7FEFF 		bl	DRAWER_readInstruction
 573              	.LVL54:
 574 00da 0446     		mov	r4, r0
 575              	.LVL55:
 153:source\asw/main.c ****                         ReleaseResource(res_drawingBuffer);
 576              		.loc 1 153 0
 577 00dc 0120     		movs	r0, #1
 578 00de FFF7FEFF 		bl	EE_oo_ReleaseResource
 579              	.LVL56:
 154:source\asw/main.c ****                         
 155:source\asw/main.c ****                         if (result == RC_SUCCESS){
 580              		.loc 1 155 0
 581 00e2 1CB9     		cbnz	r4, .L31
 156:source\asw/main.c ****                             DRAWER_drawOnTFT(&instr);
 582              		.loc 1 156 0
 583 00e4 02A8     		add	r0, sp, #8
 584 00e6 FFF7FEFF 		bl	DRAWER_drawOnTFT
 585              	.LVL57:
 586 00ea 06E0     		b	.L30
 587              	.L31:
 157:source\asw/main.c ****                             
 158:source\asw/main.c ****                         } else {
 159:source\asw/main.c ****                             UART_putString("System Overload. Resetting\n");
 588              		.loc 1 159 0
 589 00ec 0D48     		ldr	r0, .L35+32
 590 00ee FFF7FEFF 		bl	UART_LOG_PutString
 591              	.LVL58:
 160:source\asw/main.c ****                             EVENT_add(&parsingEventHandler, ev_uartError);
 592              		.loc 1 160 0
 593 00f2 0221     		movs	r1, #2
 594 00f4 0348     		ldr	r0, .L35
 595 00f6 FFF7FEFF 		bl	EVENT_add
 596              	.LVL59:
 597              	.L30:
 598              	.LBE112:
 161:source\asw/main.c ****                             
 162:source\asw/main.c ****                         }
 163:source\asw/main.c ****                     }
 164:source\asw/main.c ****                     SetEvent(tsk_handleEvents, ev_centralEvent);
 599              		.loc 1 164 0
 600 00fa 0121     		movs	r1, #1
 601 00fc 0220     		movs	r0, #2
 602 00fe FFF7FEFF 		bl	EE_oo_SetEvent
 603              	.LVL60:
 604 0102 81E7     		b	.L23
 605              	.L36:
 606              		.align	2
 607              	.L35:
 608 0104 00000000 		.word	parsingEventHandler
 609 0108 00000000 		.word	drawingEventHandler
ARM GAS  C:\Users\zakis\AppData\Local\Temp\ccRC1vp1.s 			page 27


 610 010c 00000000 		.word	drawer
 611 0110 00000000 		.word	.LC0
 612 0114 00000000 		.word	UART_port
 613 0118 00000000 		.word	jsonParser
 614 011c 28000000 		.word	.LC1
 615 0120 40000000 		.word	.LC2
 616 0124 58000000 		.word	.LC3
 617              	.LBE110:
 618              		.cfi_endproc
 619              	.LFE116:
 620              		.size	Functsk_handleEvents, .-Functsk_handleEvents
 621              		.section	.text.ISR2_isr_UART_RX,"ax",%progbits
 622              		.align	2
 623              		.global	ISR2_isr_UART_RX
 624              		.thumb
 625              		.thumb_func
 626              		.type	ISR2_isr_UART_RX, %function
 627              	ISR2_isr_UART_RX:
 628              	.LFB118:
 165:source\asw/main.c ****                 }
 166:source\asw/main.c ****             }            
 167:source\asw/main.c ****         }            
 168:source\asw/main.c ****     }
 169:source\asw/main.c **** 
 170:source\asw/main.c ****      TerminateTask();
 171:source\asw/main.c **** }
 172:source\asw/main.c **** 
 173:source\asw/main.c **** /* Handle UART RX interrupt. */
 174:source\asw/main.c **** ISR2(isr_UART_RX){
 629              		.loc 1 174 0
 630              		.cfi_startproc
 631              		@ args = 0, pretend = 0, frame = 0
 632              		@ frame_needed = 0, uses_anonymous_args = 0
 633 0000 08B5     		push	{r3, lr}
 634              		.cfi_def_cfa_offset 8
 635              		.cfi_offset 3, -8
 636              		.cfi_offset 14, -4
 637              	.LVL61:
 175:source\asw/main.c **** 
 176:source\asw/main.c ****     RC_t result = RC_ERROR_UNKNOWN;
 177:source\asw/main.c ****     result = UART_RX_isrHandler(&UART_port);
 638              		.loc 1 177 0
 639 0002 0E48     		ldr	r0, .L41
 640 0004 FFF7FEFF 		bl	UART_RX_isrHandler
 641              	.LVL62:
 178:source\asw/main.c ****     
 179:source\asw/main.c ****     if (result == RC_TRIGGER){
 642              		.loc 1 179 0
 643 0008 0128     		cmp	r0, #1
 644 000a 08D1     		bne	.L38
 180:source\asw/main.c ****         /* If terminating charactrer has been received, trigger JSON parser */
 181:source\asw/main.c ****         EVENT_add(&parsingEventHandler, ev_parseJSON);
 645              		.loc 1 181 0
 646 000c 0021     		movs	r1, #0
 647 000e 0C48     		ldr	r0, .L41+4
 648              	.LVL63:
 649 0010 FFF7FEFF 		bl	EVENT_add
ARM GAS  C:\Users\zakis\AppData\Local\Temp\ccRC1vp1.s 			page 28


 650              	.LVL64:
 182:source\asw/main.c ****         SetEvent(tsk_handleEvents, ev_centralEvent);
 651              		.loc 1 182 0
 652 0014 0121     		movs	r1, #1
 653 0016 0220     		movs	r0, #2
 654 0018 FFF7FEFF 		bl	EE_oo_SetEvent
 655              	.LVL65:
 656 001c 08BD     		pop	{r3, pc}
 657              	.LVL66:
 658              	.L38:
 183:source\asw/main.c ****     }
 184:source\asw/main.c ****     else if (result == RC_ERROR_BUFFER_FULL){
 659              		.loc 1 184 0
 660 001e 10F1080F 		cmn	r0, #8
 661 0022 0AD1     		bne	.L37
 185:source\asw/main.c ****         /* If If buffer is full, handle the error */
 186:source\asw/main.c ****         UART_clear(&UART_port);
 662              		.loc 1 186 0
 663 0024 0548     		ldr	r0, .L41
 664              	.LVL67:
 665 0026 FFF7FEFF 		bl	UART_clear
 666              	.LVL68:
 187:source\asw/main.c ****         EVENT_add(&parsingEventHandler, ev_uartError);
 667              		.loc 1 187 0
 668 002a 0221     		movs	r1, #2
 669 002c 0448     		ldr	r0, .L41+4
 670 002e FFF7FEFF 		bl	EVENT_add
 671              	.LVL69:
 188:source\asw/main.c ****         SetEvent(tsk_handleEvents, ev_centralEvent);
 672              		.loc 1 188 0
 673 0032 0121     		movs	r1, #1
 674 0034 0220     		movs	r0, #2
 675 0036 FFF7FEFF 		bl	EE_oo_SetEvent
 676              	.LVL70:
 677              	.L37:
 678 003a 08BD     		pop	{r3, pc}
 679              	.L42:
 680              		.align	2
 681              	.L41:
 682 003c 00000000 		.word	UART_port
 683 0040 00000000 		.word	parsingEventHandler
 684              		.cfi_endproc
 685              	.LFE118:
 686              		.size	ISR2_isr_UART_RX, .-ISR2_isr_UART_RX
 687              		.section	.text.isr_UART_RX,"ax",%progbits
 688              		.align	2
 689              		.global	isr_UART_RX
 690              		.thumb
 691              		.thumb_func
 692              		.type	isr_UART_RX, %function
 693              	isr_UART_RX:
 694              	.LFB117:
 174:source\asw/main.c **** 
 695              		.loc 1 174 0
 696              		.cfi_startproc
 697              		@ Stack Align: May be called with mis-aligned SP.
 698              		@ args = 0, pretend = 0, frame = 0
ARM GAS  C:\Users\zakis\AppData\Local\Temp\ccRC1vp1.s 			page 29


 699              		@ frame_needed = 0, uses_anonymous_args = 0
 700 0000 6846     		mov	r0, sp
 701              		.cfi_register 13, 0
 702 0002 20F00701 		bic	r1, r0, #7
 703 0006 8D46     		mov	sp, r1
 704 0008 19B5     		push	{r0, r3, r4, lr}
 705              		.cfi_def_cfa_offset 16
 706              		.cfi_offset 13, -16
 707              		.cfi_offset 3, -12
 708              		.cfi_offset 4, -8
 709              		.cfi_offset 14, -4
 710              	.LVL71:
 711              	.LBB137:
 712              	.LBB138:
 211:Generated_Source\PSoC5/ErikaOS_cortex_mx_ee_cpu.inc **** #endif	/* !__KEIL__ */
 713              		.loc 2 211 0
 714              		.syntax unified
 715              	@ 211 "Generated_Source\PSoC5/ErikaOS_cortex_mx_ee_cpu.inc" 1
 716 000a 72B6     		cpsid i
 717              	@ 0 "" 2
 718              		.thumb
 719              		.syntax unified
 720              	.LBE138:
 721              	.LBE137:
 722              	.LBB139:
 723              	.LBB140:
 325:Generated_Source\PSoC5/ErikaOS_cortex_mx_ee_cpu.inc **** #else
 724              		.loc 2 325 0
 725              		.syntax unified
 726              	@ 325 "Generated_Source\PSoC5/ErikaOS_cortex_mx_ee_cpu.inc" 1
 727 000c EFF31184 		MRS r4, BASEPRI
 728              	@ 0 "" 2
 729              	.LVL72:
 730              		.thumb
 731              		.syntax unified
 732              	.LBE140:
 733              	.LBE139:
 734              	.LBB141:
 735              	.LBB142:
 372:Generated_Source\PSoC5/ErikaOS_cortex_mx_ee_cpu.inc ****   register EE_TYPEISR2PRIO prio = 0;
 736              		.loc 2 372 0
 737 0010 1E4B     		ldr	r3, .L49
 738 0012 1B68     		ldr	r3, [r3]
 739 0014 DBB2     		uxtb	r3, r3
 740              	.LVL73:
 375:Generated_Source\PSoC5/ErikaOS_cortex_mx_ee_cpu.inc ****     vectact -= EE_CORTEX_MX_SYSTICK_EXC_NUM + 1;
 741              		.loc 2 375 0
 742 0016 0F2B     		cmp	r3, #15
 743 0018 10D9     		bls	.L44
 376:Generated_Source\PSoC5/ErikaOS_cortex_mx_ee_cpu.inc ****     prio = NVIC_GET_PRI(vectact);
 744              		.loc 2 376 0
 745 001a 103B     		subs	r3, r3, #16
 746              	.LVL74:
 377:Generated_Source\PSoC5/ErikaOS_cortex_mx_ee_cpu.inc ****   }
 747              		.loc 2 377 0
 748 001c 23F00302 		bic	r2, r3, #3
 749 0020 02F16042 		add	r2, r2, #-536870912
ARM GAS  C:\Users\zakis\AppData\Local\Temp\ccRC1vp1.s 			page 30


 750 0024 02F56442 		add	r2, r2, #58368
 751 0028 1168     		ldr	r1, [r2]
 752 002a DB00     		lsls	r3, r3, #3
 753              	.LVL75:
 754 002c 03F01803 		and	r3, r3, #24
 755 0030 E022     		movs	r2, #224
 756 0032 9A40     		lsls	r2, r2, r3
 757 0034 0A40     		ands	r2, r2, r1
 758 0036 22FA03F3 		lsr	r3, r2, r3
 759              	.LVL76:
 760 003a 06E0     		b	.L45
 761              	.LVL77:
 762              	.L44:
 380:Generated_Source\PSoC5/ErikaOS_cortex_mx_ee_cpu.inc ****     prio = NVIC_SYS_PRI3_R >> NVIC_SYS_PRI3_TICK_S;
 763              		.loc 2 380 0
 764 003c 0F2B     		cmp	r3, #15
 765 003e 03D1     		bne	.L48
 766              		.loc 2 381 0
 767 0040 134B     		ldr	r3, .L49+4
 768              	.LVL78:
 769 0042 1B68     		ldr	r3, [r3]
 770 0044 1B0E     		lsrs	r3, r3, #24
 771              	.LVL79:
 772 0046 00E0     		b	.L45
 773              	.LVL80:
 774              	.L48:
 373:Generated_Source\PSoC5/ErikaOS_cortex_mx_ee_cpu.inc **** 
 775              		.loc 2 373 0
 776 0048 0023     		movs	r3, #0
 777              	.LVL81:
 778              	.L45:
 779              	.LBE142:
 780              	.LBE141:
 781              	.LBB143:
 782              	.LBB144:
 358:Generated_Source\PSoC5/ErikaOS_cortex_mx_ee_cpu.inc **** #else
 783              		.loc 2 358 0
 784              		.syntax unified
 785              	@ 358 "Generated_Source\PSoC5/ErikaOS_cortex_mx_ee_cpu.inc" 1
 786 004a 83F31188 		MSR BASEPRI, r3
 787              	@ 0 "" 2
 788              		.thumb
 789              		.syntax unified
 790              	.LBE144:
 791              	.LBE143:
 792              	.LBB145:
 793              	.LBB146:
  85:Generated_Source\PSoC5/ErikaOS_common_ee_irqstub.inc **** /*  EE_std_enableIRQ_nested() and EE_std_disableIRQ_nested() must be defined in
 794              		.loc 3 85 0
 795 004e 114A     		ldr	r2, .L49+8
 796 0050 1368     		ldr	r3, [r2]
 797 0052 0133     		adds	r3, r3, #1
 798 0054 1360     		str	r3, [r2]
 799              	.LBE146:
 800              	.LBE145:
 174:source\asw/main.c **** 
 801              		.loc 1 174 0
ARM GAS  C:\Users\zakis\AppData\Local\Temp\ccRC1vp1.s 			page 31


 802 0056 012B     		cmp	r3, #1
 803 0058 01D1     		bne	.L46
 174:source\asw/main.c **** 
 804              		.loc 1 174 0 is_stmt 0 discriminator 1
 805 005a FFF7FEFF 		bl	EE_cortex_mx_change_IRQ_stack
 806              	.LVL82:
 807              	.L46:
 808              	.LBB147:
 809              	.LBB148:
 191:Generated_Source\PSoC5/ErikaOS_cortex_mx_ee_cpu.inc **** #endif	/* !__KEIL__ */
 810              		.loc 2 191 0 is_stmt 1 discriminator 3
 811              		.syntax unified
 812              	@ 191 "Generated_Source\PSoC5/ErikaOS_cortex_mx_ee_cpu.inc" 1
 813 005e 62B6     		cpsie i
 814              	@ 0 "" 2
 815              		.thumb
 816              		.syntax unified
 817              	.LBE148:
 818              	.LBE147:
 174:source\asw/main.c **** 
 819              		.loc 1 174 0 discriminator 3
 820 0060 FFF7FEFF 		bl	ISR2_isr_UART_RX
 821              	.LVL83:
 822              	.LBB149:
 823              	.LBB150:
 211:Generated_Source\PSoC5/ErikaOS_cortex_mx_ee_cpu.inc **** #endif	/* !__KEIL__ */
 824              		.loc 2 211 0 discriminator 3
 825              		.syntax unified
 826              	@ 211 "Generated_Source\PSoC5/ErikaOS_cortex_mx_ee_cpu.inc" 1
 827 0064 72B6     		cpsid i
 828              	@ 0 "" 2
 829              	.LVL84:
 830              		.thumb
 831              		.syntax unified
 832              	.LBE150:
 833              	.LBE149:
 834              	.LBB151:
 835              	.LBB152:
 358:Generated_Source\PSoC5/ErikaOS_cortex_mx_ee_cpu.inc **** #else
 836              		.loc 2 358 0 discriminator 3
 837              		.syntax unified
 838              	@ 358 "Generated_Source\PSoC5/ErikaOS_cortex_mx_ee_cpu.inc" 1
 839 0066 84F31188 		MSR BASEPRI, r4
 840              	@ 0 "" 2
 841              	.LVL85:
 842              		.thumb
 843              		.syntax unified
 844              	.LBE152:
 845              	.LBE151:
 846              	.LBB153:
 847              	.LBB154:
 848              		.loc 3 102 0 discriminator 3
 849 006a FFF7FEFF 		bl	EE_IRQ_end_post_stub
 850              	.LVL86:
 851              	.LBE154:
 852              	.LBE153:
 853              	.LBB155:
ARM GAS  C:\Users\zakis\AppData\Local\Temp\ccRC1vp1.s 			page 32


 854              	.LBB156:
  84:Generated_Source\PSoC5/ErikaOS_common_ee_irqstub.inc **** __INLINE__ void  EE_increment_IRQ_nesting_level(void) { ++EE_IRQ_nesting_level; }
 855              		.loc 3 84 0 discriminator 3
 856 006e 094A     		ldr	r2, .L49+8
 857 0070 1368     		ldr	r3, [r2]
 858 0072 013B     		subs	r3, r3, #1
 859 0074 1360     		str	r3, [r2]
 860              	.LBE156:
 861              	.LBE155:
 174:source\asw/main.c **** 
 862              		.loc 1 174 0 discriminator 3
 863 0076 1BB9     		cbnz	r3, .L47
 174:source\asw/main.c **** 
 864              		.loc 1 174 0 is_stmt 0 discriminator 4
 865 0078 FFF7FEFF 		bl	EE_cortex_mx_change_IRQ_stack_back
 866              	.LVL87:
 867              	.LBB157:
 868              	.LBB158:
 869              		.loc 4 68 0 is_stmt 1 discriminator 4
 870 007c FFF7FEFF 		bl	EE_switch_context
 871              	.LVL88:
 872              	.L47:
 873              	.LBE158:
 874              	.LBE157:
 875              	.LBB159:
 876              	.LBB160:
 191:Generated_Source\PSoC5/ErikaOS_cortex_mx_ee_cpu.inc **** #endif	/* !__KEIL__ */
 877              		.loc 2 191 0 discriminator 6
 878              		.syntax unified
 879              	@ 191 "Generated_Source\PSoC5/ErikaOS_cortex_mx_ee_cpu.inc" 1
 880 0080 62B6     		cpsie i
 881              	@ 0 "" 2
 882              		.thumb
 883              		.syntax unified
 884              	.LBE160:
 885              	.LBE159:
 174:source\asw/main.c **** 
 886              		.loc 1 174 0 discriminator 6
 887 0082 BDE81940 		pop	{r0, r3, r4, lr}
 888              		.cfi_restore 14
 889              		.cfi_restore 4
 890              		.cfi_restore 3
 891              		.cfi_restore 0
 892              		.cfi_def_cfa_offset 0
 893 0086 8546     		mov	sp, r0
 894 0088 7047     		bx	lr
 895              	.L50:
 896 008a 00BF     		.align	2
 897              	.L49:
 898 008c 04ED00E0 		.word	-536810236
 899 0090 20ED00E0 		.word	-536810208
 900 0094 00000000 		.word	EE_IRQ_nesting_level
 901              		.cfi_endproc
 902              	.LFE117:
 903              		.size	isr_UART_RX, .-isr_UART_RX
 904              		.comm	drawer,3286,4
 905              		.comm	jsonParser,824,4
ARM GAS  C:\Users\zakis\AppData\Local\Temp\ccRC1vp1.s 			page 33


 906              		.comm	drawingEventHandler,206,4
 907              		.comm	parsingEventHandler,206,4
 908              		.comm	UART_port,414,4
 909              		.section	.rodata.str1.4,"aMS",%progbits,1
 910              		.align	2
 911              	.LC0:
 912 0000 53797374 		.ascii	"System Overload. Resetting peripherals\012\000"
 912      656D204F 
 912      7665726C 
 912      6F61642E 
 912      20526573 
 913              	.LC1:
 914 0028 496E7661 		.ascii	"Invalid coordinates\012\000"
 914      6C696420 
 914      636F6F72 
 914      64696E61 
 914      7465730A 
 915 003d 000000   		.space	3
 916              	.LC2:
 917 0040 496E7661 		.ascii	"Invalid JSON packet\012\000"
 917      6C696420 
 917      4A534F4E 
 917      20706163 
 917      6B65740A 
 918 0055 000000   		.space	3
 919              	.LC3:
 920 0058 53797374 		.ascii	"System Overload. Resetting\012\000"
 920      656D204F 
 920      7665726C 
 920      6F61642E 
 920      20526573 
 921              		.text
 922              	.Letext0:
 923              		.file 6 ".\\source\\bsw/global.h"
 924              		.file 7 "c:\\program files (x86)\\cypress\\psoc creator\\4.4\\psoc creator\\import\\gnu\\arm\\5.4.
 925              		.file 8 "c:\\program files (x86)\\cypress\\psoc creator\\4.4\\psoc creator\\import\\gnu\\arm\\5.4.
 926              		.file 9 "Generated_Source\\PSoC5/ErikaOS_common_ee_types.inc"
 927              		.file 10 "Generated_Source\\PSoC5/ErikaOS_ee_oo_common.inc"
 928              		.file 11 ".\\source\\bsw\\cdd/ringBuffer.h"
 929              		.file 12 ".\\source\\bsw\\cdd/uart.h"
 930              		.file 13 ".\\source\\bsw\\cdd/ringBufferEV.h"
 931              		.file 14 ".\\source\\bsw\\cdd/events.h"
 932              		.file 15 ".\\source\\bsw\\cdd/jasmin.h"
 933              		.file 16 ".\\source\\bsw\\cdd/parser.h"
 934              		.file 17 ".\\source\\bsw\\cdd\\tft/tft.h"
 935              		.file 18 ".\\source\\bsw\\cdd/ringBufferDrawing.h"
 936              		.file 19 ".\\source\\bsw\\cdd/drawer.h"
 937              		.file 20 "Generated_Source\\PSoC5/ErikaOS_ee_oo_intfunc.inc"
 938              		.file 21 "Generated_Source\\PSoC5/ErikaOS_cortex_mx_ee_context.inc"
 939              		.file 22 "Generated_Source\\PSoC5/ErikaOS_common_ee_primitives.inc"
 940              		.file 23 "Generated_Source\\PSoC5/core_cm3.h"
 941              		.file 24 "Generated_Source\\PSoC5/ErikaOS_ee_oo_kernel.inc"
 942              		.file 25 "Generated_Source\\PSoC5/ErikaOS_ee_oo_irq.inc"
 943              		.file 26 "Generated_Source\\PSoC5/ErikaOS_cortex_mx_ee_irq.inc"
 944              		.file 27 "Generated_Source\\PSoC5/UART_LOG.h"