ARM GAS  C:\Users\zakis\AppData\Local\Temp\ccQQyeub.s 			page 1


   1              		.syntax unified
   2              		.cpu cortex-m3
   3              		.fpu softvfp
   4              		.eabi_attribute 20, 1
   5              		.eabi_attribute 21, 1
   6              		.eabi_attribute 23, 3
   7              		.eabi_attribute 24, 1
   8              		.eabi_attribute 25, 1
   9              		.eabi_attribute 26, 1
  10              		.eabi_attribute 30, 1
  11              		.eabi_attribute 34, 1
  12              		.eabi_attribute 18, 4
  13              		.thumb
  14              		.syntax unified
  15              		.file	"ringBufferEV.c"
  16              		.text
  17              	.Ltext0:
  18              		.cfi_sections	.debug_frame
  19              		.section	.text.RB_EV_clear,"ax",%progbits
  20              		.align	2
  21              		.global	RB_EV_clear
  22              		.thumb
  23              		.thumb_func
  24              		.type	RB_EV_clear, %function
  25              	RB_EV_clear:
  26              	.LFB1:
  27              		.file 1 "source\\bsw\\cdd\\ringBufferEV.c"
   1:source\bsw\cdd/ringBufferEV.c **** /**
   2:source\bsw\cdd/ringBufferEV.c **** * \file <filename>
   3:source\bsw\cdd/ringBufferEV.c **** * \author <author-name>
   4:source\bsw\cdd/ringBufferEV.c **** * \date <date>
   5:source\bsw\cdd/ringBufferEV.c **** *
   6:source\bsw\cdd/ringBufferEV.c **** * \brief <Symbolic File name>
   7:source\bsw\cdd/ringBufferEV.c **** *
   8:source\bsw\cdd/ringBufferEV.c **** * \copyright Copyright ©2016
   9:source\bsw\cdd/ringBufferEV.c **** * Department of electrical engineering and information technology, Hochschule Darmstadt - Universit
  10:source\bsw\cdd/ringBufferEV.c **** * Permission to use, copy, modify, and distribute this software and its documentation for education
  11:source\bsw\cdd/ringBufferEV.c **** * (unless permitted by h_da) and official h_da projects, is hereby granted for enrolled students of
  12:source\bsw\cdd/ringBufferEV.c **** * this paragraph and the following paragraph appear in all copies, modifications, and distributions
  13:source\bsw\cdd/ringBufferEV.c **** * Contact Prof.Dr.-Ing. Peter Fromm, peter.fromm@h-da.de, Birkenweg 8 64295 Darmstadt - GERMANY for
  14:source\bsw\cdd/ringBufferEV.c **** *
  15:source\bsw\cdd/ringBufferEV.c **** * \warning This software is a PROTOTYPE version and is not designed or intended for use in producti
  16:source\bsw\cdd/ringBufferEV.c **** * The user represents and warrants that it will NOT use or redistribute the Software for such purpo
  17:source\bsw\cdd/ringBufferEV.c **** * This prototype is for research purposes only. This software is provided "AS IS," without a warran
  18:source\bsw\cdd/ringBufferEV.c **** */
  19:source\bsw\cdd/ringBufferEV.c **** 
  20:source\bsw\cdd/ringBufferEV.c **** /*****************************************************************************/
  21:source\bsw\cdd/ringBufferEV.c **** /* Include files                                                             */
  22:source\bsw\cdd/ringBufferEV.c **** /*****************************************************************************/
  23:source\bsw\cdd/ringBufferEV.c **** #include <stdlib.h>
  24:source\bsw\cdd/ringBufferEV.c **** #include "ringBufferEV.h"
  25:source\bsw\cdd/ringBufferEV.c **** 
  26:source\bsw\cdd/ringBufferEV.c **** /*****************************************************************************/
  27:source\bsw\cdd/ringBufferEV.c **** /* Local pre-processor symbols/macros ('#define')                            */
  28:source\bsw\cdd/ringBufferEV.c **** /*****************************************************************************/
  29:source\bsw\cdd/ringBufferEV.c **** 
  30:source\bsw\cdd/ringBufferEV.c **** /*****************************************************************************/
ARM GAS  C:\Users\zakis\AppData\Local\Temp\ccQQyeub.s 			page 2


  31:source\bsw\cdd/ringBufferEV.c **** /* Global variable definitions (declared in header file with 'extern')       */
  32:source\bsw\cdd/ringBufferEV.c **** /*****************************************************************************/
  33:source\bsw\cdd/ringBufferEV.c **** 
  34:source\bsw\cdd/ringBufferEV.c **** /*****************************************************************************/
  35:source\bsw\cdd/ringBufferEV.c **** /* Local type definitions ('typedef')                                        */
  36:source\bsw\cdd/ringBufferEV.c **** /*****************************************************************************/
  37:source\bsw\cdd/ringBufferEV.c **** 
  38:source\bsw\cdd/ringBufferEV.c **** /*****************************************************************************/
  39:source\bsw\cdd/ringBufferEV.c **** /* Local variable definitions ('static')                                     */
  40:source\bsw\cdd/ringBufferEV.c **** /*****************************************************************************/
  41:source\bsw\cdd/ringBufferEV.c **** 
  42:source\bsw\cdd/ringBufferEV.c **** 
  43:source\bsw\cdd/ringBufferEV.c **** 
  44:source\bsw\cdd/ringBufferEV.c **** /*****************************************************************************/
  45:source\bsw\cdd/ringBufferEV.c **** /* Local function prototypes ('static')                                      */
  46:source\bsw\cdd/ringBufferEV.c **** /*****************************************************************************/
  47:source\bsw\cdd/ringBufferEV.c **** 
  48:source\bsw\cdd/ringBufferEV.c **** 
  49:source\bsw\cdd/ringBufferEV.c **** /*****************************************************************************/
  50:source\bsw\cdd/ringBufferEV.c **** /* Function implementation - global ('extern') and local ('static')          */
  51:source\bsw\cdd/ringBufferEV.c **** /*****************************************************************************/
  52:source\bsw\cdd/ringBufferEV.c **** 
  53:source\bsw\cdd/ringBufferEV.c **** /**
  54:source\bsw\cdd/ringBufferEV.c ****  * Initialisation of a ringbuffer
  55:source\bsw\cdd/ringBufferEV.c ****  * @param RB_EV_t * const me : IN/OUT - pointer to ringbuffer object 
  56:source\bsw\cdd/ringBufferEV.c ****  * @return RC_SUCCESS or error code
  57:source\bsw\cdd/ringBufferEV.c ****  */
  58:source\bsw\cdd/ringBufferEV.c **** RC_t RB_EV_init(RB_EV_t * const me)
  59:source\bsw\cdd/ringBufferEV.c **** {
  60:source\bsw\cdd/ringBufferEV.c ****     return RB_EV_clear(me);
  61:source\bsw\cdd/ringBufferEV.c **** }
  62:source\bsw\cdd/ringBufferEV.c **** 
  63:source\bsw\cdd/ringBufferEV.c **** /**
  64:source\bsw\cdd/ringBufferEV.c ****  * Clearing of a ringbuffer
  65:source\bsw\cdd/ringBufferEV.c ****  * @param RB_EV_t * const me : IN/OUT - pointer to ringbuffer object 
  66:source\bsw\cdd/ringBufferEV.c ****  * @return RC_SUCCESS or error code
  67:source\bsw\cdd/ringBufferEV.c ****  */
  68:source\bsw\cdd/ringBufferEV.c **** RC_t RB_EV_clear(RB_EV_t * const me)
  69:source\bsw\cdd/ringBufferEV.c **** {
  28              		.loc 1 69 0
  29              		.cfi_startproc
  30              		@ args = 0, pretend = 0, frame = 0
  31              		@ frame_needed = 0, uses_anonymous_args = 0
  32              		@ link register save eliminated.
  33              	.LVL0:
  70:source\bsw\cdd/ringBufferEV.c ****     if (0 == me) return RC_ERROR_BAD_PARAM;
  34              		.loc 1 70 0
  35 0000 0146     		mov	r1, r0
  36 0002 78B1     		cbz	r0, .L5
  71:source\bsw\cdd/ringBufferEV.c ****     
  72:source\bsw\cdd/ringBufferEV.c ****     me->m_fillLevel = 0;
  37              		.loc 1 72 0
  38 0004 0023     		movs	r3, #0
  39 0006 A0F8CC30 		strh	r3, [r0, #204]	@ movhi
  73:source\bsw\cdd/ringBufferEV.c ****     me->m_readIndex = 0;
  40              		.loc 1 73 0
  41 000a A0F8C830 		strh	r3, [r0, #200]	@ movhi
ARM GAS  C:\Users\zakis\AppData\Local\Temp\ccQQyeub.s 			page 3


  74:source\bsw\cdd/ringBufferEV.c ****     me->m_writeIndex = 0;
  42              		.loc 1 74 0
  43 000e A0F8CA30 		strh	r3, [r0, #202]	@ movhi
  44              	.LVL1:
  45              	.LBB2:
  75:source\bsw\cdd/ringBufferEV.c ****     
  76:source\bsw\cdd/ringBufferEV.c ****     for (uint16_t i = 0; i < RB_EV_SIZE; i++)
  46              		.loc 1 76 0
  47 0012 03E0     		b	.L3
  48              	.LVL2:
  49              	.L4:
  77:source\bsw\cdd/ringBufferEV.c ****     {
  78:source\bsw\cdd/ringBufferEV.c ****         me->m_data[i] = -1;
  50              		.loc 1 78 0 discriminator 3
  51 0014 FF22     		movs	r2, #255
  52 0016 CA54     		strb	r2, [r1, r3]
  76:source\bsw\cdd/ringBufferEV.c ****     {
  53              		.loc 1 76 0 discriminator 3
  54 0018 0133     		adds	r3, r3, #1
  55              	.LVL3:
  56 001a 9BB2     		uxth	r3, r3
  57              	.LVL4:
  58              	.L3:
  76:source\bsw\cdd/ringBufferEV.c ****     {
  59              		.loc 1 76 0 is_stmt 0 discriminator 1
  60 001c C72B     		cmp	r3, #199
  61 001e F9D9     		bls	.L4
  62              	.LBE2:
  79:source\bsw\cdd/ringBufferEV.c ****     }
  80:source\bsw\cdd/ringBufferEV.c ****     
  81:source\bsw\cdd/ringBufferEV.c ****     return RC_SUCCESS;
  63              		.loc 1 81 0 is_stmt 1
  64 0020 0020     		movs	r0, #0
  65              	.LVL5:
  66              	.LBB3:
  67 0022 7047     		bx	lr
  68              	.LVL6:
  69              	.L5:
  70              	.LBE3:
  70:source\bsw\cdd/ringBufferEV.c ****     
  71              		.loc 1 70 0
  72 0024 6FF01300 		mvn	r0, #19
  73              	.LVL7:
  82:source\bsw\cdd/ringBufferEV.c **** }
  74              		.loc 1 82 0
  75 0028 7047     		bx	lr
  76              		.cfi_endproc
  77              	.LFE1:
  78              		.size	RB_EV_clear, .-RB_EV_clear
  79 002a 00BF     		.section	.text.RB_EV_init,"ax",%progbits
  80              		.align	2
  81              		.global	RB_EV_init
  82              		.thumb
  83              		.thumb_func
  84              		.type	RB_EV_init, %function
  85              	RB_EV_init:
  86              	.LFB0:
ARM GAS  C:\Users\zakis\AppData\Local\Temp\ccQQyeub.s 			page 4


  59:source\bsw\cdd/ringBufferEV.c ****     return RB_EV_clear(me);
  87              		.loc 1 59 0
  88              		.cfi_startproc
  89              		@ args = 0, pretend = 0, frame = 0
  90              		@ frame_needed = 0, uses_anonymous_args = 0
  91              	.LVL8:
  92 0000 08B5     		push	{r3, lr}
  93              		.cfi_def_cfa_offset 8
  94              		.cfi_offset 3, -8
  95              		.cfi_offset 14, -4
  60:source\bsw\cdd/ringBufferEV.c **** }
  96              		.loc 1 60 0
  97 0002 FFF7FEFF 		bl	RB_EV_clear
  98              	.LVL9:
  61:source\bsw\cdd/ringBufferEV.c **** 
  99              		.loc 1 61 0
 100 0006 08BD     		pop	{r3, pc}
 101              		.cfi_endproc
 102              	.LFE0:
 103              		.size	RB_EV_init, .-RB_EV_init
 104              		.section	.text.RB_EV_write,"ax",%progbits
 105              		.align	2
 106              		.global	RB_EV_write
 107              		.thumb
 108              		.thumb_func
 109              		.type	RB_EV_write, %function
 110              	RB_EV_write:
 111              	.LFB2:
  83:source\bsw\cdd/ringBufferEV.c ****     
  84:source\bsw\cdd/ringBufferEV.c **** 
  85:source\bsw\cdd/ringBufferEV.c **** /**
  86:source\bsw\cdd/ringBufferEV.c ****  * Write one element to the ringbuffer
  87:source\bsw\cdd/ringBufferEV.c ****  * @param RB_EV_t * const me : IN/OUT - pointer to ringbuffer object 
  88:source\bsw\cdd/ringBufferEV.c ****  * @param RB_data_t const * const data : IN - Data to be written
  89:source\bsw\cdd/ringBufferEV.c ****  * @return RC_SUCCESS or error code
  90:source\bsw\cdd/ringBufferEV.c ****  */
  91:source\bsw\cdd/ringBufferEV.c **** RC_t RB_EV_write(RB_EV_t * const me, RB_EV_data_t const * const data)
  92:source\bsw\cdd/ringBufferEV.c **** {
 112              		.loc 1 92 0
 113              		.cfi_startproc
 114              		@ args = 0, pretend = 0, frame = 0
 115              		@ frame_needed = 0, uses_anonymous_args = 0
 116              		@ link register save eliminated.
 117              	.LVL10:
 118 0000 10B4     		push	{r4}
 119              		.cfi_def_cfa_offset 4
 120              		.cfi_offset 4, -4
  93:source\bsw\cdd/ringBufferEV.c ****     if (me->m_fillLevel < RB_EV_SIZE)
 121              		.loc 1 93 0
 122 0002 B0F8CC40 		ldrh	r4, [r0, #204]
 123 0006 C72C     		cmp	r4, #199
 124 0008 16D8     		bhi	.L10
  94:source\bsw\cdd/ringBufferEV.c ****     {
  95:source\bsw\cdd/ringBufferEV.c ****         me->m_data[me->m_writeIndex++] = *data;
 125              		.loc 1 95 0
 126 000a B0F8CA20 		ldrh	r2, [r0, #202]
 127 000e 531C     		adds	r3, r2, #1
ARM GAS  C:\Users\zakis\AppData\Local\Temp\ccQQyeub.s 			page 5


 128 0010 9BB2     		uxth	r3, r3
 129 0012 A0F8CA30 		strh	r3, [r0, #202]	@ movhi
 130 0016 91F90010 		ldrsb	r1, [r1]
 131              	.LVL11:
 132 001a 8154     		strb	r1, [r0, r2]
  96:source\bsw\cdd/ringBufferEV.c ****         
  97:source\bsw\cdd/ringBufferEV.c ****         me->m_writeIndex %= RB_EV_SIZE;
 133              		.loc 1 97 0
 134 001c 084A     		ldr	r2, .L12
 135 001e A2FB0312 		umull	r1, r2, r2, r3
 136 0022 9209     		lsrs	r2, r2, #6
 137 0024 C821     		movs	r1, #200
 138 0026 01FB1233 		mls	r3, r1, r2, r3
 139 002a A0F8CA30 		strh	r3, [r0, #202]	@ movhi
  98:source\bsw\cdd/ringBufferEV.c ****         me->m_fillLevel++;
 140              		.loc 1 98 0
 141 002e 0134     		adds	r4, r4, #1
 142 0030 A0F8CC40 		strh	r4, [r0, #204]	@ movhi
  99:source\bsw\cdd/ringBufferEV.c ****         
 100:source\bsw\cdd/ringBufferEV.c ****         return RC_SUCCESS;
 143              		.loc 1 100 0
 144 0034 0020     		movs	r0, #0
 145              	.LVL12:
 146 0036 01E0     		b	.L9
 147              	.LVL13:
 148              	.L10:
 101:source\bsw\cdd/ringBufferEV.c ****     }
 102:source\bsw\cdd/ringBufferEV.c ****     else
 103:source\bsw\cdd/ringBufferEV.c ****     {
 104:source\bsw\cdd/ringBufferEV.c ****         return RC_ERROR_BUFFER_FULL;
 149              		.loc 1 104 0
 150 0038 6FF00700 		mvn	r0, #7
 151              	.LVL14:
 152              	.L9:
 105:source\bsw\cdd/ringBufferEV.c ****     }
 106:source\bsw\cdd/ringBufferEV.c **** }
 153              		.loc 1 106 0
 154 003c 10BC     		pop	{r4}
 155              		.cfi_restore 4
 156              		.cfi_def_cfa_offset 0
 157 003e 7047     		bx	lr
 158              	.L13:
 159              		.align	2
 160              	.L12:
 161 0040 1F85EB51 		.word	1374389535
 162              		.cfi_endproc
 163              	.LFE2:
 164              		.size	RB_EV_write, .-RB_EV_write
 165              		.section	.text.RB_EV_read,"ax",%progbits
 166              		.align	2
 167              		.global	RB_EV_read
 168              		.thumb
 169              		.thumb_func
 170              		.type	RB_EV_read, %function
 171              	RB_EV_read:
 172              	.LFB3:
 107:source\bsw\cdd/ringBufferEV.c **** 
ARM GAS  C:\Users\zakis\AppData\Local\Temp\ccQQyeub.s 			page 6


 108:source\bsw\cdd/ringBufferEV.c **** /**
 109:source\bsw\cdd/ringBufferEV.c ****  * Read one element from the ringbuffer
 110:source\bsw\cdd/ringBufferEV.c ****  * @param RB_EV_t * const me : IN/OUT - pointer to ringbuffer object 
 111:source\bsw\cdd/ringBufferEV.c ****  * @param RB_data_t * const data : OUT - Data read
 112:source\bsw\cdd/ringBufferEV.c ****  * @return RC_SUCCESS or error code
 113:source\bsw\cdd/ringBufferEV.c ****  */
 114:source\bsw\cdd/ringBufferEV.c **** RC_t RB_EV_read(RB_EV_t * const me, RB_EV_data_t * const data)
 115:source\bsw\cdd/ringBufferEV.c **** {
 173              		.loc 1 115 0
 174              		.cfi_startproc
 175              		@ args = 0, pretend = 0, frame = 0
 176              		@ frame_needed = 0, uses_anonymous_args = 0
 177              		@ link register save eliminated.
 178              	.LVL15:
 116:source\bsw\cdd/ringBufferEV.c ****     if (me->m_fillLevel > 0)
 179              		.loc 1 116 0
 180 0000 B0F8CC30 		ldrh	r3, [r0, #204]
 181 0004 C3B1     		cbz	r3, .L16
 117:source\bsw\cdd/ringBufferEV.c ****     {
 118:source\bsw\cdd/ringBufferEV.c ****         *data = me->m_data[me->m_readIndex++];
 182              		.loc 1 118 0
 183 0006 B0F8C830 		ldrh	r3, [r0, #200]
 184 000a 5A1C     		adds	r2, r3, #1
 185 000c A0F8C820 		strh	r2, [r0, #200]	@ movhi
 186 0010 C356     		ldrsb	r3, [r0, r3]
 187 0012 0B70     		strb	r3, [r1]
 119:source\bsw\cdd/ringBufferEV.c ****         
 120:source\bsw\cdd/ringBufferEV.c ****         me->m_readIndex %= RB_EV_SIZE;
 188              		.loc 1 120 0
 189 0014 B0F8C830 		ldrh	r3, [r0, #200]
 190 0018 094A     		ldr	r2, .L17
 191 001a A2FB0312 		umull	r1, r2, r2, r3
 192              	.LVL16:
 193 001e 9209     		lsrs	r2, r2, #6
 194 0020 C821     		movs	r1, #200
 195 0022 01FB1233 		mls	r3, r1, r2, r3
 196 0026 A0F8C830 		strh	r3, [r0, #200]	@ movhi
 121:source\bsw\cdd/ringBufferEV.c ****         me->m_fillLevel--;
 197              		.loc 1 121 0
 198 002a B0F8CC30 		ldrh	r3, [r0, #204]
 199 002e 013B     		subs	r3, r3, #1
 200 0030 A0F8CC30 		strh	r3, [r0, #204]	@ movhi
 122:source\bsw\cdd/ringBufferEV.c ****         
 123:source\bsw\cdd/ringBufferEV.c ****         return RC_SUCCESS;
 201              		.loc 1 123 0
 202 0034 0020     		movs	r0, #0
 203              	.LVL17:
 204 0036 7047     		bx	lr
 205              	.LVL18:
 206              	.L16:
 124:source\bsw\cdd/ringBufferEV.c ****     }
 125:source\bsw\cdd/ringBufferEV.c ****     else
 126:source\bsw\cdd/ringBufferEV.c ****     {
 127:source\bsw\cdd/ringBufferEV.c ****         return RC_ERROR_BUFFER_EMTPY;
 207              		.loc 1 127 0
 208 0038 6FF00800 		mvn	r0, #8
 209              	.LVL19:
ARM GAS  C:\Users\zakis\AppData\Local\Temp\ccQQyeub.s 			page 7


 128:source\bsw\cdd/ringBufferEV.c ****     }
 129:source\bsw\cdd/ringBufferEV.c **** }
 210              		.loc 1 129 0
 211 003c 7047     		bx	lr
 212              	.L18:
 213 003e 00BF     		.align	2
 214              	.L17:
 215 0040 1F85EB51 		.word	1374389535
 216              		.cfi_endproc
 217              	.LFE3:
 218              		.size	RB_EV_read, .-RB_EV_read
 219              		.section	.text.RB_EV_getCapacity,"ax",%progbits
 220              		.align	2
 221              		.global	RB_EV_getCapacity
 222              		.thumb
 223              		.thumb_func
 224              		.type	RB_EV_getCapacity, %function
 225              	RB_EV_getCapacity:
 226              	.LFB4:
 130:source\bsw\cdd/ringBufferEV.c **** 
 131:source\bsw\cdd/ringBufferEV.c **** /**
 132:source\bsw\cdd/ringBufferEV.c ****  * Provide available space in buffer
 133:source\bsw\cdd/ringBufferEV.c ****  * @param RB_EV_t * const me : IN/OUT - pointer to ringbuffer object 
 134:source\bsw\cdd/ringBufferEV.c ****  * @return Available number of elements to be stored
 135:source\bsw\cdd/ringBufferEV.c ****  */
 136:source\bsw\cdd/ringBufferEV.c **** uint16_t RB_EV_getCapacity(RB_EV_t * const me)
 137:source\bsw\cdd/ringBufferEV.c **** {
 227              		.loc 1 137 0
 228              		.cfi_startproc
 229              		@ args = 0, pretend = 0, frame = 0
 230              		@ frame_needed = 0, uses_anonymous_args = 0
 231              		@ link register save eliminated.
 232              	.LVL20:
 138:source\bsw\cdd/ringBufferEV.c ****     //Todo: No  error handling considered, assume all other functions work as intended
 139:source\bsw\cdd/ringBufferEV.c ****     return RB_EV_SIZE - me->m_fillLevel;
 233              		.loc 1 139 0
 234 0000 B0F8CC00 		ldrh	r0, [r0, #204]
 235              	.LVL21:
 236 0004 C0F1C800 		rsb	r0, r0, #200
 140:source\bsw\cdd/ringBufferEV.c **** }
 237              		.loc 1 140 0
 238 0008 80B2     		uxth	r0, r0
 239 000a 7047     		bx	lr
 240              		.cfi_endproc
 241              	.LFE4:
 242              		.size	RB_EV_getCapacity, .-RB_EV_getCapacity
 243              		.section	.text.RB_EV_getNumberOfStoredElements,"ax",%progbits
 244              		.align	2
 245              		.global	RB_EV_getNumberOfStoredElements
 246              		.thumb
 247              		.thumb_func
 248              		.type	RB_EV_getNumberOfStoredElements, %function
 249              	RB_EV_getNumberOfStoredElements:
 250              	.LFB5:
 141:source\bsw\cdd/ringBufferEV.c **** 
 142:source\bsw\cdd/ringBufferEV.c **** /**
 143:source\bsw\cdd/ringBufferEV.c ****  * Check how much data is stored
ARM GAS  C:\Users\zakis\AppData\Local\Temp\ccQQyeub.s 			page 8


 144:source\bsw\cdd/ringBufferEV.c ****  * @param RB_EV_t * const me : IN/OUT - pointer to ringbuffer object 
 145:source\bsw\cdd/ringBufferEV.c ****  * @return number of byte stored
 146:source\bsw\cdd/ringBufferEV.c ****  */
 147:source\bsw\cdd/ringBufferEV.c **** uint16_t RB_EV_getNumberOfStoredElements(RB_EV_t * const me)
 148:source\bsw\cdd/ringBufferEV.c **** {
 251              		.loc 1 148 0
 252              		.cfi_startproc
 253              		@ args = 0, pretend = 0, frame = 0
 254              		@ frame_needed = 0, uses_anonymous_args = 0
 255              		@ link register save eliminated.
 256              	.LVL22:
 149:source\bsw\cdd/ringBufferEV.c ****     return me->m_fillLevel;
 150:source\bsw\cdd/ringBufferEV.c **** }
 257              		.loc 1 150 0
 258 0000 B0F8CC00 		ldrh	r0, [r0, #204]
 259              	.LVL23:
 260 0004 7047     		bx	lr
 261              		.cfi_endproc
 262              	.LFE5:
 263              		.size	RB_EV_getNumberOfStoredElements, .-RB_EV_getNumberOfStoredElements
 264 0006 00BF     		.text
 265              	.Letext0:
 266              		.file 2 ".\\source\\bsw/global.h"
 267              		.file 3 "source\\bsw\\cdd\\ringBufferEV.h"