ARM GAS  C:\Users\zakis\AppData\Local\Temp\cckdbzJP.s 			page 1


   1              		.syntax unified
   2              		.cpu cortex-m3
   3              		.fpu softvfp
   4              		.eabi_attribute 20, 1
   5              		.eabi_attribute 21, 1
   6              		.eabi_attribute 23, 3
   7              		.eabi_attribute 24, 1
   8              		.eabi_attribute 25, 1
   9              		.eabi_attribute 26, 1
  10              		.eabi_attribute 30, 1
  11              		.eabi_attribute 34, 1
  12              		.eabi_attribute 18, 4
  13              		.thumb
  14              		.syntax unified
  15              		.file	"events.c"
  16              		.text
  17              	.Ltext0:
  18              		.cfi_sections	.debug_frame
  19              		.section	.text.EVENT_init,"ax",%progbits
  20              		.align	2
  21              		.global	EVENT_init
  22              		.thumb
  23              		.thumb_func
  24              		.type	EVENT_init, %function
  25              	EVENT_init:
  26              	.LFB0:
  27              		.file 1 "source\\bsw\\cdd\\events.c"
   1:source\bsw\cdd/events.c **** /**
   2:source\bsw\cdd/events.c **** * \file <filename>
   3:source\bsw\cdd/events.c **** * \author <author-name>
   4:source\bsw\cdd/events.c **** * \date <date>
   5:source\bsw\cdd/events.c **** *
   6:source\bsw\cdd/events.c **** * \brief <Symbolic File name>
   7:source\bsw\cdd/events.c **** *
   8:source\bsw\cdd/events.c **** * \copyright Copyright ©2016
   9:source\bsw\cdd/events.c **** * Department of electrical engineering and information technology, Hochschule Darmstadt - Universit
  10:source\bsw\cdd/events.c **** * Permission to use, copy, modify, and distribute this software and its documentation for education
  11:source\bsw\cdd/events.c **** * (unless permitted by h_da) and official h_da projects, is hereby granted for enrolled students of
  12:source\bsw\cdd/events.c **** * this paragraph and the following paragraph appear in all copies, modifications, and distributions
  13:source\bsw\cdd/events.c **** * Contact Prof.Dr.-Ing. Peter Fromm, peter.fromm@h-da.de, Birkenweg 8 64295 Darmstadt - GERMANY for
  14:source\bsw\cdd/events.c **** *
  15:source\bsw\cdd/events.c **** * \warning This software is a PROTOTYPE version and is not designed or intended for use in producti
  16:source\bsw\cdd/events.c **** * The user represents and warrants that it will NOT use or redistribute the Software for such purpo
  17:source\bsw\cdd/events.c **** * This prototype is for research purposes only. This software is provided "AS IS," without a warran
  18:source\bsw\cdd/events.c **** */
  19:source\bsw\cdd/events.c **** 
  20:source\bsw\cdd/events.c **** /*****************************************************************************/
  21:source\bsw\cdd/events.c **** /* Include files                                                             */
  22:source\bsw\cdd/events.c **** /*****************************************************************************/
  23:source\bsw\cdd/events.c **** #include <stdlib.h>
  24:source\bsw\cdd/events.c **** #include "events.h"
  25:source\bsw\cdd/events.c **** 
  26:source\bsw\cdd/events.c **** /*****************************************************************************/
  27:source\bsw\cdd/events.c **** /* Local pre-processor symbols/macros ('#define')                            */
  28:source\bsw\cdd/events.c **** /*****************************************************************************/
  29:source\bsw\cdd/events.c **** 
  30:source\bsw\cdd/events.c **** /*****************************************************************************/
ARM GAS  C:\Users\zakis\AppData\Local\Temp\cckdbzJP.s 			page 2


  31:source\bsw\cdd/events.c **** /* Global variable definitions (declared in header file with 'extern')       */
  32:source\bsw\cdd/events.c **** /*****************************************************************************/
  33:source\bsw\cdd/events.c **** 
  34:source\bsw\cdd/events.c **** /*****************************************************************************/
  35:source\bsw\cdd/events.c **** /* Local type definitions ('typedef')                                        */
  36:source\bsw\cdd/events.c **** /*****************************************************************************/
  37:source\bsw\cdd/events.c **** 
  38:source\bsw\cdd/events.c **** /*****************************************************************************/
  39:source\bsw\cdd/events.c **** /* Local variable definitions ('static')                                     */
  40:source\bsw\cdd/events.c **** /*****************************************************************************/
  41:source\bsw\cdd/events.c **** 
  42:source\bsw\cdd/events.c **** 
  43:source\bsw\cdd/events.c **** 
  44:source\bsw\cdd/events.c **** /*****************************************************************************/
  45:source\bsw\cdd/events.c **** /* Local function prototypes ('static')                                      */
  46:source\bsw\cdd/events.c **** /*****************************************************************************/
  47:source\bsw\cdd/events.c **** 
  48:source\bsw\cdd/events.c **** 
  49:source\bsw\cdd/events.c **** /*****************************************************************************/
  50:source\bsw\cdd/events.c **** /* Function implementation - global ('extern') and local ('static')          */
  51:source\bsw\cdd/events.c **** /*****************************************************************************/
  52:source\bsw\cdd/events.c **** 
  53:source\bsw\cdd/events.c **** RC_t EVENT_init(EVENT_t *const me){
  28              		.loc 1 53 0
  29              		.cfi_startproc
  30              		@ args = 0, pretend = 0, frame = 0
  31              		@ frame_needed = 0, uses_anonymous_args = 0
  32              	.LVL0:
  33 0000 08B5     		push	{r3, lr}
  34              		.cfi_def_cfa_offset 8
  35              		.cfi_offset 3, -8
  36              		.cfi_offset 14, -4
  54:source\bsw\cdd/events.c ****     RB_EV_init(&me -> m_evBuffer);
  37              		.loc 1 54 0
  38 0002 FFF7FEFF 		bl	RB_EV_init
  39              	.LVL1:
  55:source\bsw\cdd/events.c ****     return RC_SUCCESS;
  56:source\bsw\cdd/events.c **** }
  40              		.loc 1 56 0
  41 0006 0020     		movs	r0, #0
  42 0008 08BD     		pop	{r3, pc}
  43              		.cfi_endproc
  44              	.LFE0:
  45              		.size	EVENT_init, .-EVENT_init
  46 000a 00BF     		.section	.text.EVENT_add,"ax",%progbits
  47              		.align	2
  48              		.global	EVENT_add
  49              		.thumb
  50              		.thumb_func
  51              		.type	EVENT_add, %function
  52              	EVENT_add:
  53              	.LFB1:
  57:source\bsw\cdd/events.c **** 
  58:source\bsw\cdd/events.c **** RC_t EVENT_add(EVENT_t *const me, const eEvent_t event){
  54              		.loc 1 58 0
  55              		.cfi_startproc
  56              		@ args = 0, pretend = 0, frame = 8
ARM GAS  C:\Users\zakis\AppData\Local\Temp\cckdbzJP.s 			page 3


  57              		@ frame_needed = 0, uses_anonymous_args = 0
  58              	.LVL2:
  59 0000 00B5     		push	{lr}
  60              		.cfi_def_cfa_offset 4
  61              		.cfi_offset 14, -4
  62 0002 83B0     		sub	sp, sp, #12
  63              		.cfi_def_cfa_offset 16
  64 0004 02AB     		add	r3, sp, #8
  65 0006 03F8011D 		strb	r1, [r3, #-1]!
  59:source\bsw\cdd/events.c ****     if (RB_EV_write (&me -> m_evBuffer, &event) == RC_SUCCESS){
  66              		.loc 1 59 0
  67 000a 1946     		mov	r1, r3
  68              	.LVL3:
  69 000c FFF7FEFF 		bl	RB_EV_write
  70              	.LVL4:
  71 0010 0346     		mov	r3, r0
  72 0012 08B1     		cbz	r0, .L4
  60:source\bsw\cdd/events.c ****         return RC_SUCCESS;
  61:source\bsw\cdd/events.c ****     } else {
  62:source\bsw\cdd/events.c ****         return RC_ERROR;
  73              		.loc 1 62 0
  74 0014 4FF0FF33 		mov	r3, #-1
  75              	.L4:
  63:source\bsw\cdd/events.c ****     }
  64:source\bsw\cdd/events.c **** }
  76              		.loc 1 64 0
  77 0018 1846     		mov	r0, r3
  78 001a 03B0     		add	sp, sp, #12
  79              		.cfi_def_cfa_offset 4
  80              		@ sp needed
  81 001c 5DF804FB 		ldr	pc, [sp], #4
  82              		.cfi_endproc
  83              	.LFE1:
  84              		.size	EVENT_add, .-EVENT_add
  85              		.section	.text.EVENT_read,"ax",%progbits
  86              		.align	2
  87              		.global	EVENT_read
  88              		.thumb
  89              		.thumb_func
  90              		.type	EVENT_read, %function
  91              	EVENT_read:
  92              	.LFB2:
  65:source\bsw\cdd/events.c **** 
  66:source\bsw\cdd/events.c **** RC_t EVENT_read(EVENT_t *const me, eEvent_t* const event){
  93              		.loc 1 66 0
  94              		.cfi_startproc
  95              		@ args = 0, pretend = 0, frame = 0
  96              		@ frame_needed = 0, uses_anonymous_args = 0
  97              	.LVL5:
  98 0000 08B5     		push	{r3, lr}
  99              		.cfi_def_cfa_offset 8
 100              		.cfi_offset 3, -8
 101              		.cfi_offset 14, -4
  67:source\bsw\cdd/events.c **** if (RB_EV_read (&me -> m_evBuffer, event) == RC_SUCCESS){
 102              		.loc 1 67 0
 103 0002 FFF7FEFF 		bl	RB_EV_read
 104              	.LVL6:
ARM GAS  C:\Users\zakis\AppData\Local\Temp\cckdbzJP.s 			page 4


 105 0006 0346     		mov	r3, r0
 106 0008 08B1     		cbz	r0, .L8
  68:source\bsw\cdd/events.c ****         return RC_SUCCESS;
  69:source\bsw\cdd/events.c ****     } else {
  70:source\bsw\cdd/events.c ****         return RC_ERROR;
 107              		.loc 1 70 0
 108 000a 4FF0FF33 		mov	r3, #-1
 109              	.L8:
  71:source\bsw\cdd/events.c ****     }
  72:source\bsw\cdd/events.c **** 
  73:source\bsw\cdd/events.c **** }...
 110              		.loc 1 73 0
 111 000e 1846     		mov	r0, r3
 112 0010 08BD     		pop	{r3, pc}
 113              		.cfi_endproc
 114              	.LFE2:
 115              		.size	EVENT_read, .-EVENT_read
 116 0012 00BF     		.text
 117              	.Letext0:
 118              		.file 2 ".\\source\\bsw/global.h"
 119              		.file 3 "source\\bsw\\cdd\\ringBufferEV.h"
 120              		.file 4 "source\\bsw\\cdd\\events.h"