ARM GAS  C:\Users\zakis\AppData\Local\Temp\cc0Yr0df.s 			page 1


   1              		.syntax unified
   2              		.cpu cortex-m3
   3              		.fpu softvfp
   4              		.eabi_attribute 20, 1
   5              		.eabi_attribute 21, 1
   6              		.eabi_attribute 23, 3
   7              		.eabi_attribute 24, 1
   8              		.eabi_attribute 25, 1
   9              		.eabi_attribute 26, 1
  10              		.eabi_attribute 30, 1
  11              		.eabi_attribute 34, 1
  12              		.eabi_attribute 18, 4
  13              		.thumb
  14              		.syntax unified
  15              		.file	"uart.c"
  16              		.text
  17              	.Ltext0:
  18              		.cfi_sections	.debug_frame
  19              		.section	.text.UART_init,"ax",%progbits
  20              		.align	2
  21              		.global	UART_init
  22              		.thumb
  23              		.thumb_func
  24              		.type	UART_init, %function
  25              	UART_init:
  26              	.LFB0:
  27              		.file 1 "source\\bsw\\cdd\\uart.c"
   1:source\bsw\cdd/uart.c **** /**
   2:source\bsw\cdd/uart.c **** * \file uart.c
   3:source\bsw\cdd/uart.c **** * \author P. Fromm
   4:source\bsw\cdd/uart.c **** * \date 8.12.19
   5:source\bsw\cdd/uart.c **** *
   6:source\bsw\cdd/uart.c **** * \brief UART wrapper
   7:source\bsw\cdd/uart.c **** *
   8:source\bsw\cdd/uart.c **** * \copyright Copyright ©2016
   9:source\bsw\cdd/uart.c **** * Department of electrical engineering and information technology, Hochschule Darmstadt - Universit
  10:source\bsw\cdd/uart.c **** * Permission to use, copy, modify, and distribute this software and its documentation for education
  11:source\bsw\cdd/uart.c **** * (unless permitted by h_da) and official h_da projects, is hereby granted for enrolled students of
  12:source\bsw\cdd/uart.c **** * this paragraph and the following paragraph appear in all copies, modifications, and distributions
  13:source\bsw\cdd/uart.c **** * Contact Prof.Dr.-Ing. Peter Fromm, peter.fromm@h-da.de, Birkenweg 8 64295 Darmstadt - GERMANY for
  14:source\bsw\cdd/uart.c **** *
  15:source\bsw\cdd/uart.c **** * \warning This software is a PROTOTYPE version and is not designed or intended for use in producti
  16:source\bsw\cdd/uart.c **** * The user represents and warrants that it will NOT use or redistribute the Software for such purpo
  17:source\bsw\cdd/uart.c **** * This prototype is for research purposes only. This software is provided "AS IS," without a warran
  18:source\bsw\cdd/uart.c **** */
  19:source\bsw\cdd/uart.c **** 
  20:source\bsw\cdd/uart.c **** /*****************************************************************************/
  21:source\bsw\cdd/uart.c **** /* Include files                                                             */
  22:source\bsw\cdd/uart.c **** /*****************************************************************************/
  23:source\bsw\cdd/uart.c **** #include <string.h>
  24:source\bsw\cdd/uart.c **** 
  25:source\bsw\cdd/uart.c **** #include "uart.h"
  26:source\bsw\cdd/uart.c **** 
  27:source\bsw\cdd/uart.c **** /*****************************************************************************/
  28:source\bsw\cdd/uart.c **** /* Local pre-processor symbols/macros ('#define')                            */
  29:source\bsw\cdd/uart.c **** /*****************************************************************************/
  30:source\bsw\cdd/uart.c **** 
ARM GAS  C:\Users\zakis\AppData\Local\Temp\cc0Yr0df.s 			page 2


  31:source\bsw\cdd/uart.c **** /*****************************************************************************/
  32:source\bsw\cdd/uart.c **** /* Global variable definitions (declared in header file with 'extern')       */
  33:source\bsw\cdd/uart.c **** /*****************************************************************************/
  34:source\bsw\cdd/uart.c **** 
  35:source\bsw\cdd/uart.c **** /*****************************************************************************/
  36:source\bsw\cdd/uart.c **** /* Local type definitions ('typedef')                                        */
  37:source\bsw\cdd/uart.c **** /*****************************************************************************/
  38:source\bsw\cdd/uart.c **** 
  39:source\bsw\cdd/uart.c **** /*****************************************************************************/
  40:source\bsw\cdd/uart.c **** /* Local variable definitions ('static')                                     */
  41:source\bsw\cdd/uart.c **** /*****************************************************************************/
  42:source\bsw\cdd/uart.c **** 
  43:source\bsw\cdd/uart.c **** 
  44:source\bsw\cdd/uart.c **** 
  45:source\bsw\cdd/uart.c **** /*****************************************************************************/
  46:source\bsw\cdd/uart.c **** /* Local function prototypes ('static')                                      */
  47:source\bsw\cdd/uart.c **** /*****************************************************************************/
  48:source\bsw\cdd/uart.c **** 
  49:source\bsw\cdd/uart.c **** 
  50:source\bsw\cdd/uart.c **** /*****************************************************************************/
  51:source\bsw\cdd/uart.c **** /* Function implementation - global ('extern') and local ('static')          */
  52:source\bsw\cdd/uart.c **** /*****************************************************************************/
  53:source\bsw\cdd/uart.c **** 
  54:source\bsw\cdd/uart.c **** /**
  55:source\bsw\cdd/uart.c ****  * Init a Uart Port
  56:source\bsw\cdd/uart.c ****  * @param UART_t * const me : IN/OUT - pointer to uart port object 
  57:source\bsw\cdd/uart.c ****  * @return RC_SUCCESS or error code
  58:source\bsw\cdd/uart.c ****  */
  59:source\bsw\cdd/uart.c **** RC_t UART_init(UART_t *const me)
  60:source\bsw\cdd/uart.c **** {
  28              		.loc 1 60 0
  29              		.cfi_startproc
  30              		@ args = 0, pretend = 0, frame = 0
  31              		@ frame_needed = 0, uses_anonymous_args = 0
  32              	.LVL0:
  33 0000 38B5     		push	{r3, r4, r5, lr}
  34              		.cfi_def_cfa_offset 16
  35              		.cfi_offset 3, -16
  36              		.cfi_offset 4, -12
  37              		.cfi_offset 5, -8
  38              		.cfi_offset 14, -4
  39 0002 0446     		mov	r4, r0
  61:source\bsw\cdd/uart.c ****     RB_init(&me->m_rxBuffer);
  40              		.loc 1 61 0
  41 0004 CE30     		adds	r0, r0, #206
  42              	.LVL1:
  43 0006 FFF7FEFF 		bl	RB_init
  44              	.LVL2:
  62:source\bsw\cdd/uart.c ****     RB_init(&me->m_txBuffer);
  45              		.loc 1 62 0
  46 000a 2046     		mov	r0, r4
  47 000c FFF7FEFF 		bl	RB_init
  48              	.LVL3:
  63:source\bsw\cdd/uart.c ****     me -> countISR = 0;
  49              		.loc 1 63 0
  50 0010 0025     		movs	r5, #0
  51 0012 A4F89C51 		strh	r5, [r4, #412]	@ movhi
ARM GAS  C:\Users\zakis\AppData\Local\Temp\cc0Yr0df.s 			page 3


  64:source\bsw\cdd/uart.c ****     
  65:source\bsw\cdd/uart.c ****     UART_start();
  52              		.loc 1 65 0
  53 0016 FFF7FEFF 		bl	UART_LOG_Start
  54              	.LVL4:
  66:source\bsw\cdd/uart.c ****     UART_putString("UART is ready to receive JSON packets\n");
  55              		.loc 1 66 0
  56 001a 0248     		ldr	r0, .L3
  57 001c FFF7FEFF 		bl	UART_LOG_PutString
  58              	.LVL5:
  67:source\bsw\cdd/uart.c **** 
  68:source\bsw\cdd/uart.c ****     return RC_SUCCESS;
  69:source\bsw\cdd/uart.c **** }
  59              		.loc 1 69 0
  60 0020 2846     		mov	r0, r5
  61 0022 38BD     		pop	{r3, r4, r5, pc}
  62              	.LVL6:
  63              	.L4:
  64              		.align	2
  65              	.L3:
  66 0024 00000000 		.word	.LC0
  67              		.cfi_endproc
  68              	.LFE0:
  69              		.size	UART_init, .-UART_init
  70              		.section	.text.UART_clear,"ax",%progbits
  71              		.align	2
  72              		.global	UART_clear
  73              		.thumb
  74              		.thumb_func
  75              		.type	UART_clear, %function
  76              	UART_clear:
  77              	.LFB1:
  70:source\bsw\cdd/uart.c **** 
  71:source\bsw\cdd/uart.c **** RC_t UART_clear(UART_t *const me){
  78              		.loc 1 71 0
  79              		.cfi_startproc
  80              		@ args = 0, pretend = 0, frame = 0
  81              		@ frame_needed = 0, uses_anonymous_args = 0
  82              	.LVL7:
  83 0000 10B5     		push	{r4, lr}
  84              		.cfi_def_cfa_offset 8
  85              		.cfi_offset 4, -8
  86              		.cfi_offset 14, -4
  87 0002 0446     		mov	r4, r0
  72:source\bsw\cdd/uart.c ****     RB_clear(&me->m_rxBuffer);
  88              		.loc 1 72 0
  89 0004 CE30     		adds	r0, r0, #206
  90              	.LVL8:
  91 0006 FFF7FEFF 		bl	RB_clear
  92              	.LVL9:
  73:source\bsw\cdd/uart.c ****     RB_clear(&me->m_txBuffer);
  93              		.loc 1 73 0
  94 000a 2046     		mov	r0, r4
  95 000c FFF7FEFF 		bl	RB_clear
  96              	.LVL10:
  74:source\bsw\cdd/uart.c ****     
  75:source\bsw\cdd/uart.c ****     return RC_SUCCESS;
ARM GAS  C:\Users\zakis\AppData\Local\Temp\cc0Yr0df.s 			page 4


  76:source\bsw\cdd/uart.c **** 
  77:source\bsw\cdd/uart.c **** }
  97              		.loc 1 77 0
  98 0010 0020     		movs	r0, #0
  99 0012 10BD     		pop	{r4, pc}
 100              		.cfi_endproc
 101              	.LFE1:
 102              		.size	UART_clear, .-UART_clear
 103              		.section	.text.UART_restartOperation,"ax",%progbits
 104              		.align	2
 105              		.global	UART_restartOperation
 106              		.thumb
 107              		.thumb_func
 108              		.type	UART_restartOperation, %function
 109              	UART_restartOperation:
 110              	.LFB2:
  78:source\bsw\cdd/uart.c **** 
  79:source\bsw\cdd/uart.c **** RC_t UART_restartOperation(){
 111              		.loc 1 79 0
 112              		.cfi_startproc
 113              		@ args = 0, pretend = 0, frame = 0
 114              		@ frame_needed = 0, uses_anonymous_args = 0
 115 0000 08B5     		push	{r3, lr}
 116              		.cfi_def_cfa_offset 8
 117              		.cfi_offset 3, -8
 118              		.cfi_offset 14, -4
  80:source\bsw\cdd/uart.c ****     UART_LOG_Stop();
 119              		.loc 1 80 0
 120 0002 FFF7FEFF 		bl	UART_LOG_Stop
 121              	.LVL11:
  81:source\bsw\cdd/uart.c ****     UART_start();
 122              		.loc 1 81 0
 123 0006 FFF7FEFF 		bl	UART_LOG_Start
 124              	.LVL12:
  82:source\bsw\cdd/uart.c **** 
  83:source\bsw\cdd/uart.c **** }
 125              		.loc 1 83 0
 126 000a 08BD     		pop	{r3, pc}
 127              		.cfi_endproc
 128              	.LFE2:
 129              		.size	UART_restartOperation, .-UART_restartOperation
 130              		.section	.text.UART_writeString,"ax",%progbits
 131              		.align	2
 132              		.global	UART_writeString
 133              		.thumb
 134              		.thumb_func
 135              		.type	UART_writeString, %function
 136              	UART_writeString:
 137              	.LFB3:
  84:source\bsw\cdd/uart.c **** 
  85:source\bsw\cdd/uart.c **** /**
  86:source\bsw\cdd/uart.c ****  * Write a string to the UART, Using Ringbuffer and ISR
  87:source\bsw\cdd/uart.c ****  * @param UART_t * const me : IN/OUT - pointer to uart port object 
  88:source\bsw\cdd/uart.c ****  * @param uint8_t const * const s : IN - pointer to the string to be transmitted
  89:source\bsw\cdd/uart.c ****  * @return <return description>
  90:source\bsw\cdd/uart.c ****  */
  91:source\bsw\cdd/uart.c **** RC_t UART_writeString(UART_t *const me, uint8_t const * const s)
ARM GAS  C:\Users\zakis\AppData\Local\Temp\cc0Yr0df.s 			page 5


  92:source\bsw\cdd/uart.c **** {
 138              		.loc 1 92 0
 139              		.cfi_startproc
 140              		@ args = 0, pretend = 0, frame = 8
 141              		@ frame_needed = 0, uses_anonymous_args = 0
 142              	.LVL13:
 143 0000 2DE9F041 		push	{r4, r5, r6, r7, r8, lr}
 144              		.cfi_def_cfa_offset 24
 145              		.cfi_offset 4, -24
 146              		.cfi_offset 5, -20
 147              		.cfi_offset 6, -16
 148              		.cfi_offset 7, -12
 149              		.cfi_offset 8, -8
 150              		.cfi_offset 14, -4
 151 0004 82B0     		sub	sp, sp, #8
 152              		.cfi_def_cfa_offset 32
 153 0006 8046     		mov	r8, r0
 154 0008 0E46     		mov	r6, r1
  93:source\bsw\cdd/uart.c ****     //Write data into ringbuffer
  94:source\bsw\cdd/uart.c ****     uint16_t len = strlen(s);
 155              		.loc 1 94 0
 156 000a 0846     		mov	r0, r1
 157              	.LVL14:
 158 000c FFF7FEFF 		bl	strlen
 159              	.LVL15:
 160 0010 85B2     		uxth	r5, r0
 161              	.LVL16:
  95:source\bsw\cdd/uart.c ****     uint16_t capacity = RB_getCapacity(&me->m_txBuffer);
 162              		.loc 1 95 0
 163 0012 4046     		mov	r0, r8
 164 0014 FFF7FEFF 		bl	RB_getCapacity
 165              	.LVL17:
  96:source\bsw\cdd/uart.c ****     
  97:source\bsw\cdd/uart.c ****     if (len < capacity)
 166              		.loc 1 97 0
 167 0018 8542     		cmp	r5, r0
 168 001a 09D3     		bcc	.L13
  98:source\bsw\cdd/uart.c ****     {
  99:source\bsw\cdd/uart.c ****         for (uint16_t i = 0; i < len; i++)
 100:source\bsw\cdd/uart.c ****         {
 101:source\bsw\cdd/uart.c ****             RB_write(&me->m_txBuffer, &s[i]);
 102:source\bsw\cdd/uart.c ****         }
 103:source\bsw\cdd/uart.c ****     
 104:source\bsw\cdd/uart.c ****         //Initiate transfer
 105:source\bsw\cdd/uart.c ****         //Can be optimized in terms of speed
 106:source\bsw\cdd/uart.c ****         uint8_t firstElement = 0;
 107:source\bsw\cdd/uart.c ****         RB_read(&me->m_txBuffer, &firstElement);
 108:source\bsw\cdd/uart.c ****         
 109:source\bsw\cdd/uart.c ****         //Send to driver
 110:source\bsw\cdd/uart.c ****         //Rest will be transmitted by TX_isr;
 111:source\bsw\cdd/uart.c ****         UART_writeByte(firstElement);
 112:source\bsw\cdd/uart.c ****     }
 113:source\bsw\cdd/uart.c ****     else
 114:source\bsw\cdd/uart.c ****     {
 115:source\bsw\cdd/uart.c ****         return RC_ERROR_MEMORY;
 169              		.loc 1 115 0
 170 001c 6FF00300 		mvn	r0, #3
ARM GAS  C:\Users\zakis\AppData\Local\Temp\cc0Yr0df.s 			page 6


 171              	.LVL18:
 172 0020 16E0     		b	.L11
 173              	.LVL19:
 174              	.L12:
 175              	.LBB2:
 176              	.LBB3:
 101:source\bsw\cdd/uart.c ****         }
 177              		.loc 1 101 0 discriminator 3
 178 0022 3119     		adds	r1, r6, r4
 179 0024 3846     		mov	r0, r7
 180 0026 FFF7FEFF 		bl	RB_write
 181              	.LVL20:
  99:source\bsw\cdd/uart.c ****         {
 182              		.loc 1 99 0 discriminator 3
 183 002a 0134     		adds	r4, r4, #1
 184              	.LVL21:
 185 002c A4B2     		uxth	r4, r4
 186              	.LVL22:
 187 002e 01E0     		b	.L10
 188              	.LVL23:
 189              	.L13:
 190 0030 4746     		mov	r7, r8
 191              	.LBE3:
 192              	.LBE2:
 193 0032 0024     		movs	r4, #0
 194              	.LVL24:
 195              	.L10:
 196              	.LBB5:
 197              	.LBB4:
  99:source\bsw\cdd/uart.c ****         {
 198              		.loc 1 99 0 is_stmt 0 discriminator 1
 199 0034 AC42     		cmp	r4, r5
 200 0036 F4D3     		bcc	.L12
 201              	.LBE4:
 106:source\bsw\cdd/uart.c ****         RB_read(&me->m_txBuffer, &firstElement);
 202              		.loc 1 106 0 is_stmt 1
 203 0038 0024     		movs	r4, #0
 204              	.LVL25:
 205 003a 02A9     		add	r1, sp, #8
 206 003c 01F8014D 		strb	r4, [r1, #-1]!
 107:source\bsw\cdd/uart.c ****         
 207              		.loc 1 107 0
 208 0040 4046     		mov	r0, r8
 209 0042 FFF7FEFF 		bl	RB_read
 210              	.LVL26:
 111:source\bsw\cdd/uart.c ****     }
 211              		.loc 1 111 0
 212 0046 9DF80700 		ldrb	r0, [sp, #7]	@ zero_extendqisi2
 213 004a FFF7FEFF 		bl	UART_LOG_WriteTxData
 214              	.LVL27:
 215              	.LBE5:
 116:source\bsw\cdd/uart.c ****     }
 117:source\bsw\cdd/uart.c ****     
 118:source\bsw\cdd/uart.c ****     return RC_SUCCESS;
 216              		.loc 1 118 0
 217 004e 2046     		mov	r0, r4
 218              	.LVL28:
ARM GAS  C:\Users\zakis\AppData\Local\Temp\cc0Yr0df.s 			page 7


 219              	.L11:
 119:source\bsw\cdd/uart.c **** }
 220              		.loc 1 119 0
 221 0050 02B0     		add	sp, sp, #8
 222              		.cfi_def_cfa_offset 24
 223              		@ sp needed
 224 0052 BDE8F081 		pop	{r4, r5, r6, r7, r8, pc}
 225              		.cfi_endproc
 226              	.LFE3:
 227              		.size	UART_writeString, .-UART_writeString
 228              		.section	.text.UART_TX_isrHandler,"ax",%progbits
 229              		.align	2
 230              		.global	UART_TX_isrHandler
 231              		.thumb
 232              		.thumb_func
 233              		.type	UART_TX_isrHandler, %function
 234              	UART_TX_isrHandler:
 235              	.LFB4:
 120:source\bsw\cdd/uart.c **** 
 121:source\bsw\cdd/uart.c **** /**
 122:source\bsw\cdd/uart.c ****  * Write next char to the UART port
 123:source\bsw\cdd/uart.c ****  * @param UART_t * const me : IN/OUT - pointer to uart port object 
 124:source\bsw\cdd/uart.c ****  * @return RC_SUCCESS or errorcode
 125:source\bsw\cdd/uart.c ****  */
 126:source\bsw\cdd/uart.c **** RC_t UART_TX_isrHandler(UART_t *const me)
 127:source\bsw\cdd/uart.c **** {
 236              		.loc 1 127 0
 237              		.cfi_startproc
 238              		@ args = 0, pretend = 0, frame = 8
 239              		@ frame_needed = 0, uses_anonymous_args = 0
 240              	.LVL29:
 241 0000 30B5     		push	{r4, r5, lr}
 242              		.cfi_def_cfa_offset 12
 243              		.cfi_offset 4, -12
 244              		.cfi_offset 5, -8
 245              		.cfi_offset 14, -4
 246 0002 83B0     		sub	sp, sp, #12
 247              		.cfi_def_cfa_offset 24
 248 0004 0546     		mov	r5, r0
 128:source\bsw\cdd/uart.c ****     
 129:source\bsw\cdd/uart.c ****     if (RB_getNumberOfStoredElements(&me->m_txBuffer))
 249              		.loc 1 129 0
 250 0006 FFF7FEFF 		bl	RB_getNumberOfStoredElements
 251              	.LVL30:
 252 000a 60B1     		cbz	r0, .L17
 253              	.LBB6:
 130:source\bsw\cdd/uart.c ****     {
 131:source\bsw\cdd/uart.c ****         uint8_t nextElement = 0;
 254              		.loc 1 131 0
 255 000c 0024     		movs	r4, #0
 256 000e 02A9     		add	r1, sp, #8
 257 0010 01F8014D 		strb	r4, [r1, #-1]!
 132:source\bsw\cdd/uart.c ****         RB_read(&me->m_txBuffer, &nextElement);
 258              		.loc 1 132 0
 259 0014 2846     		mov	r0, r5
 260 0016 FFF7FEFF 		bl	RB_read
 261              	.LVL31:
ARM GAS  C:\Users\zakis\AppData\Local\Temp\cc0Yr0df.s 			page 8


 133:source\bsw\cdd/uart.c ****         
 134:source\bsw\cdd/uart.c ****         //Send to driver
 135:source\bsw\cdd/uart.c ****         UART_writeByte(nextElement);
 262              		.loc 1 135 0
 263 001a 9DF80700 		ldrb	r0, [sp, #7]	@ zero_extendqisi2
 264 001e FFF7FEFF 		bl	UART_LOG_WriteTxData
 265              	.LVL32:
 136:source\bsw\cdd/uart.c ****         
 137:source\bsw\cdd/uart.c ****         return RC_SUCCESS;
 266              		.loc 1 137 0
 267 0022 2046     		mov	r0, r4
 268 0024 01E0     		b	.L16
 269              	.L17:
 270              	.LBE6:
 138:source\bsw\cdd/uart.c ****     }
 139:source\bsw\cdd/uart.c ****     else
 140:source\bsw\cdd/uart.c ****     {
 141:source\bsw\cdd/uart.c ****         //do nothing, transfer ended
 142:source\bsw\cdd/uart.c ****         return RC_ERROR_BUFFER_EMTPY;
 271              		.loc 1 142 0
 272 0026 6FF00800 		mvn	r0, #8
 273              	.L16:
 143:source\bsw\cdd/uart.c ****     }
 144:source\bsw\cdd/uart.c ****     
 145:source\bsw\cdd/uart.c **** }
 274              		.loc 1 145 0 discriminator 1
 275 002a 03B0     		add	sp, sp, #12
 276              		.cfi_def_cfa_offset 12
 277              		@ sp needed
 278 002c 30BD     		pop	{r4, r5, pc}
 279              		.cfi_endproc
 280              	.LFE4:
 281              		.size	UART_TX_isrHandler, .-UART_TX_isrHandler
 282 002e 00BF     		.section	.text.UART_RX_isrHandler,"ax",%progbits
 283              		.align	2
 284              		.global	UART_RX_isrHandler
 285              		.thumb
 286              		.thumb_func
 287              		.type	UART_RX_isrHandler, %function
 288              	UART_RX_isrHandler:
 289              	.LFB5:
 146:source\bsw\cdd/uart.c **** 
 147:source\bsw\cdd/uart.c **** 
 148:source\bsw\cdd/uart.c **** 
 149:source\bsw\cdd/uart.c **** RC_t UART_RX_isrHandler(UART_t *const me){
 290              		.loc 1 149 0
 291              		.cfi_startproc
 292              		@ args = 0, pretend = 0, frame = 8
 293              		@ frame_needed = 0, uses_anonymous_args = 0
 294              	.LVL33:
 295 0000 10B5     		push	{r4, lr}
 296              		.cfi_def_cfa_offset 8
 297              		.cfi_offset 4, -8
 298              		.cfi_offset 14, -4
 299 0002 82B0     		sub	sp, sp, #8
 300              		.cfi_def_cfa_offset 16
 301 0004 0446     		mov	r4, r0
ARM GAS  C:\Users\zakis\AppData\Local\Temp\cc0Yr0df.s 			page 9


 150:source\bsw\cdd/uart.c ****     uint8_t receivedByte = UART_readByte();
 302              		.loc 1 150 0
 303 0006 FFF7FEFF 		bl	UART_LOG_GetByte
 304              	.LVL34:
 305 000a 02A9     		add	r1, sp, #8
 306 000c 01F8010D 		strb	r0, [r1, #-1]!
 307              	.LVL35:
 151:source\bsw\cdd/uart.c ****     
 152:source\bsw\cdd/uart.c ****     
 153:source\bsw\cdd/uart.c ****     RC_t result = RC_ERROR;
 154:source\bsw\cdd/uart.c ****     result =  RB_write(&me->m_rxBuffer, &receivedByte);
 308              		.loc 1 154 0
 309 0010 04F1CE00 		add	r0, r4, #206
 310 0014 FFF7FEFF 		bl	RB_write
 311              	.LVL36:
 155:source\bsw\cdd/uart.c ****     if (result == RC_SUCCESS && receivedByte == UART_Terminator){
 312              		.loc 1 155 0
 313 0018 0246     		mov	r2, r0
 314 001a 20B9     		cbnz	r0, .L20
 315              		.loc 1 155 0 is_stmt 0 discriminator 1
 316 001c 9DF80730 		ldrb	r3, [sp, #7]	@ zero_extendqisi2
 317 0020 232B     		cmp	r3, #35
 318 0022 00D1     		bne	.L20
 156:source\bsw\cdd/uart.c ****         result = RC_TRIGGER;
 319              		.loc 1 156 0 is_stmt 1
 320 0024 0122     		movs	r2, #1
 321              	.L20:
 322              	.LVL37:
 157:source\bsw\cdd/uart.c ****     }
 158:source\bsw\cdd/uart.c ****     me -> countISR++;
 323              		.loc 1 158 0
 324 0026 B4F89C31 		ldrh	r3, [r4, #412]
 325 002a 0133     		adds	r3, r3, #1
 326 002c A4F89C31 		strh	r3, [r4, #412]	@ movhi
 159:source\bsw\cdd/uart.c ****     return result;
 160:source\bsw\cdd/uart.c **** }
 327              		.loc 1 160 0
 328 0030 1046     		mov	r0, r2
 329 0032 02B0     		add	sp, sp, #8
 330              		.cfi_def_cfa_offset 8
 331              		@ sp needed
 332 0034 10BD     		pop	{r4, pc}
 333              		.cfi_endproc
 334              	.LFE5:
 335              		.size	UART_RX_isrHandler, .-UART_RX_isrHandler
 336 0036 00BF     		.section	.text.UART_getJsonString,"ax",%progbits
 337              		.align	2
 338              		.global	UART_getJsonString
 339              		.thumb
 340              		.thumb_func
 341              		.type	UART_getJsonString, %function
 342              	UART_getJsonString:
 343              	.LFB6:
 161:source\bsw\cdd/uart.c **** 
 162:source\bsw\cdd/uart.c **** RC_t UART_getJsonString(UART_t * const me, uint8_t * const jsonString){
 344              		.loc 1 162 0
 345              		.cfi_startproc
ARM GAS  C:\Users\zakis\AppData\Local\Temp\cc0Yr0df.s 			page 10


 346              		@ args = 0, pretend = 0, frame = 8
 347              		@ frame_needed = 0, uses_anonymous_args = 0
 348              	.LVL38:
 349 0000 70B5     		push	{r4, r5, r6, lr}
 350              		.cfi_def_cfa_offset 16
 351              		.cfi_offset 4, -16
 352              		.cfi_offset 5, -12
 353              		.cfi_offset 6, -8
 354              		.cfi_offset 14, -4
 355 0002 82B0     		sub	sp, sp, #8
 356              		.cfi_def_cfa_offset 24
 357 0004 0546     		mov	r5, r0
 358 0006 0E46     		mov	r6, r1
 359              	.LVL39:
 163:source\bsw\cdd/uart.c **** #if 0
 164:source\bsw\cdd/uart.c ****     if (me == NULL || jsonString == NULL){
 165:source\bsw\cdd/uart.c ****         return RC_ERROR_NULL;
 166:source\bsw\cdd/uart.c ****     }
 167:source\bsw\cdd/uart.c ****     
 168:source\bsw\cdd/uart.c ****     if (RB_getNumberOfStoredElements(&me->m_rxBuffer) == 0) {
 169:source\bsw\cdd/uart.c ****         return RC_ERROR_BUFFER_EMTPY;
 170:source\bsw\cdd/uart.c ****     }
 171:source\bsw\cdd/uart.c **** 
 172:source\bsw\cdd/uart.c **** for (uint8_t i = 0; i > MAX_JSON_STRING_LENGTH; ++i){
 173:source\bsw\cdd/uart.c **** 
 174:source\bsw\cdd/uart.c ****     jsonString[i] = '\0';
 175:source\bsw\cdd/uart.c **** }
 176:source\bsw\cdd/uart.c **** #endif
 177:source\bsw\cdd/uart.c **** 
 178:source\bsw\cdd/uart.c ****     char receivedChar;
 179:source\bsw\cdd/uart.c ****     int index = 0;
 360              		.loc 1 179 0
 361 0008 0024     		movs	r4, #0
 362 000a 00E0     		b	.L26
 363              	.LVL40:
 364              	.L28:
 365              	.LBB7:
 180:source\bsw\cdd/uart.c ****     uint8_t data;
 181:source\bsw\cdd/uart.c ****     while (1) {
 182:source\bsw\cdd/uart.c ****         RC_t result = RB_read(&me->m_rxBuffer, &data);
 183:source\bsw\cdd/uart.c **** 
 184:source\bsw\cdd/uart.c ****         if (result == RC_SUCCESS) {
 185:source\bsw\cdd/uart.c ****             receivedChar = data;
 186:source\bsw\cdd/uart.c ****             jsonString[index++] = receivedChar;
 366              		.loc 1 186 0
 367 000c 1446     		mov	r4, r2
 368              	.LVL41:
 369              	.L26:
 182:source\bsw\cdd/uart.c **** 
 370              		.loc 1 182 0
 371 000e 0DF10701 		add	r1, sp, #7
 372 0012 05F1CE00 		add	r0, r5, #206
 373 0016 FFF7FEFF 		bl	RB_read
 374              	.LVL42:
 184:source\bsw\cdd/uart.c ****             receivedChar = data;
 375              		.loc 1 184 0
 376 001a 60B9     		cbnz	r0, .L27
ARM GAS  C:\Users\zakis\AppData\Local\Temp\cc0Yr0df.s 			page 11


 185:source\bsw\cdd/uart.c ****             jsonString[index++] = receivedChar;
 377              		.loc 1 185 0
 378 001c 9DF80730 		ldrb	r3, [sp, #7]	@ zero_extendqisi2
 379              	.LVL43:
 380              		.loc 1 186 0
 381 0020 621C     		adds	r2, r4, #1
 382              	.LVL44:
 383 0022 3355     		strb	r3, [r6, r4]
 187:source\bsw\cdd/uart.c ****       
 188:source\bsw\cdd/uart.c ****             if (receivedChar == UART_Terminator) {
 384              		.loc 1 188 0
 385 0024 232B     		cmp	r3, #35
 386 0026 01D1     		bne	.L25
 189:source\bsw\cdd/uart.c ****                 jsonString[index] = '\0';
 387              		.loc 1 189 0
 388 0028 B054     		strb	r0, [r6, r2]
 190:source\bsw\cdd/uart.c ****                 //UART_LOG_PutString("UART_getString");
 191:source\bsw\cdd/uart.c ****                 //UART_LOG_PutString((const char8 *)jsonString); // debug
 192:source\bsw\cdd/uart.c ****                 //UART_LOG_PutString("\n");
 193:source\bsw\cdd/uart.c ****                 return RC_SUCCESS;
 389              		.loc 1 193 0
 390 002a 06E0     		b	.L24
 391              	.L25:
 194:source\bsw\cdd/uart.c ****             }
 195:source\bsw\cdd/uart.c **** 
 196:source\bsw\cdd/uart.c ****             if (index >= MAX_JSON_STRING_LENGTH - 1) {
 392              		.loc 1 196 0
 393 002c C62A     		cmp	r2, #198
 394 002e EDDD     		ble	.L28
 197:source\bsw\cdd/uart.c ****                 return RC_ERROR_READ_FAILS;
 395              		.loc 1 197 0
 396 0030 6FF01000 		mvn	r0, #16
 397              	.LVL45:
 398 0034 01E0     		b	.L24
 399              	.LVL46:
 400              	.L27:
 198:source\bsw\cdd/uart.c ****                 break;
 199:source\bsw\cdd/uart.c ****             }
 200:source\bsw\cdd/uart.c ****         } else {
 201:source\bsw\cdd/uart.c ****              return RC_ERROR_READ_FAILS;
 401              		.loc 1 201 0
 402 0036 6FF01000 		mvn	r0, #16
 403              	.LVL47:
 404              	.L24:
 405              	.LBE7:
 202:source\bsw\cdd/uart.c ****             break;
 203:source\bsw\cdd/uart.c ****         }
 204:source\bsw\cdd/uart.c ****     }
 205:source\bsw\cdd/uart.c **** }
 406              		.loc 1 205 0
 407 003a 02B0     		add	sp, sp, #8
 408              		.cfi_def_cfa_offset 16
 409              		@ sp needed
 410 003c 70BD     		pop	{r4, r5, r6, pc}
 411              		.cfi_endproc
 412              	.LFE6:
 413              		.size	UART_getJsonString, .-UART_getJsonString
ARM GAS  C:\Users\zakis\AppData\Local\Temp\cc0Yr0df.s 			page 12


 414 003e 00BF     		.section	.rodata.str1.4,"aMS",%progbits,1
 415              		.align	2
 416              	.LC0:
 417 0000 55415254 		.ascii	"UART is ready to receive JSON packets\012\000"
 417      20697320 
 417      72656164 
 417      7920746F 
 417      20726563 
 418              		.text
 419              	.Letext0:
 420              		.file 2 ".\\source\\bsw/global.h"
 421              		.file 3 "source\\bsw\\cdd\\ringBuffer.h"
 422              		.file 4 "source\\bsw\\cdd\\uart.h"
 423              		.file 5 "Generated_Source\\PSoC5/UART_LOG.h"
 424              		.file 6 "c:\\program files (x86)\\cypress\\psoc creator\\4.4\\psoc creator\\import\\gnu\\arm\\5.4.